(dp0
S'Region_BMin0_incJet1_distmMMC_J2_D_T2_SpcTauLH_Y2015_LTT1_L1'
p1
(dp2
S'S/B'
p3
F0.00022501015626903449
sS'S/sqrt(S+B)'
p4
F0.017972411357573187
sS'L_x_ttbar_Region_BMin0_incJet1_distmMMC_J2_D_T2_SpcTauLH_Y2015_LTT1_L1_overallSyst_x_StatUncert'
p5
(lp6
F3967.264904683117
aI-1
asS'SignalExpected'
p7
(lp8
F1.4358474094979798
aF-1.0
asS'L_x_WHbb_Region_BMin0_incJet1_distmMMC_J2_D_T2_SpcTauLH_Y2015_LTT1_L1_overallSyst_x_StatUncert'
p9
(lp10
F0.1638579886505735
aI-1
asS'data'
p11
F6348.0
sS'L_x_Zlf_Region_BMin0_incJet1_distmMMC_J2_D_T2_SpcTauLH_Y2015_LTT1_L1_overallSyst_x_StatUncert'
p12
(lp13
F2.448994582669599
aI-1
asS'L_x_ggFHtautau_Region_BMin0_incJet1_distmMMC_J2_D_T2_SpcTauLH_Y2015_LTT1_L1_overallSyst_x_StatUncert'
p14
(lp15
F4.620012907653302
aI-1
asS'L_x_Zttlf_Region_BMin0_incJet1_distmMMC_J2_D_T2_SpcTauLH_Y2015_LTT1_L1_overallSyst_x_StatUncert'
p16
(lp17
F40.86645621684561
aI-1
asS'L_x_ggZHbb_Region_BMin0_incJet1_distmMMC_J2_D_T2_SpcTauLH_Y2015_LTT1_L1_overallSyst_x_StatUncert'
p18
(lp19
F1.414465024512457
aI-1
asS'Signal'
p20
(lp21
F1.4358474094979798
aI-1
asS'L_x_Ztthf_Region_BMin0_incJet1_distmMMC_J2_D_T2_SpcTauLH_Y2015_LTT1_L1_overallSyst_x_StatUncert'
p22
(lp23
F536.9081860765743
aI-1
asS'L_x_hhttbb_Region_BMin0_incJet1_distmMMC_J2_D_T2_SpcTauLH_Y2015_LTT1_L1_overallSyst_x_HistSyst'
p24
(lp25
F1.3827313690191532
aI-1
asS'L_x_DY_Region_BMin0_incJet1_distmMMC_J2_D_T2_SpcTauLH_Y2015_LTT1_L1_overallSyst_x_StatUncert'
p26
(lp27
F0.5809080919834183
aI-1
asS'L_x_VBFHtautau_Region_BMin0_incJet1_distmMMC_J2_D_T2_SpcTauLH_Y2015_LTT1_L1_overallSyst_x_StatUncert'
p28
(lp29
F0.34720457853179293
aI-1
asS'Bkg'
p30
(lp31
F6381.2559988678995
aI-1
asS'L_x_Fake_Region_BMin0_incJet1_distmMMC_J2_D_T2_SpcTauLH_Y2015_LTT1_L1_overallSyst_x_StatUncert'
p32
(lp33
F1531.1974092565647
aI-1
asS'L_x_hhttbbVBFSM_Region_BMin0_incJet1_distmMMC_J2_D_T2_SpcTauLH_Y2015_LTT1_L1_overallSyst_x_HistSyst'
p34
(lp35
F0.053116040478826614
aI-1
asS'L_x_ggZHtautau_Region_BMin0_incJet1_distmMMC_J2_D_T2_SpcTauLH_Y2015_LTT1_L1_overallSyst_x_StatUncert'
p36
(lp37
F0.7223567271697998
aI-1
asS'L_x_DYtt_Region_BMin0_incJet1_distmMMC_J2_D_T2_SpcTauLH_Y2015_LTT1_L1_overallSyst_x_StatUncert'
p38
(lp39
F0.24899646898916067
aI-1
asS'L_x_qqZHbb_Region_BMin0_incJet1_distmMMC_J2_D_T2_SpcTauLH_Y2015_LTT1_L1_overallSyst_x_StatUncert'
p40
(lp41
F3.729303911753559
aI-1
asS'L_x_WHtautau_Region_BMin0_incJet1_distmMMC_J2_D_T2_SpcTauLH_Y2015_LTT1_L1_overallSyst_x_StatUncert'
p42
(lp43
F0.16191763147023788
aI-1
asS'MC'
p44
(lp45
F6382.691846277397
aI-1
asS'L_x_ttH_Region_BMin0_incJet1_distmMMC_J2_D_T2_SpcTauLH_Y2015_LTT1_L1_overallSyst_x_StatUncert'
p46
(lp47
F10.802503911821507
aI-1
asS'L_x_Wtt_Region_BMin0_incJet1_distmMMC_J2_D_T2_SpcTauLH_Y2015_LTT1_L1_overallSyst_x_StatUncert'
p48
(lp49
F2.3645221703340624
aI-1
asS'L_x_W_Region_BMin0_incJet1_distmMMC_J2_D_T2_SpcTauLH_Y2015_LTT1_L1_overallSyst_x_StatUncert'
p50
(lp51
F1.2739684228664143
aI-1
asS'L_x_diboson_Region_BMin0_incJet1_distmMMC_J2_D_T2_SpcTauLH_Y2015_LTT1_L1_overallSyst_x_StatUncert'
p52
(lp53
F19.89324315537225
aI-1
asS'L_x_stop_Region_BMin0_incJet1_distmMMC_J2_D_T2_SpcTauLH_Y2015_LTT1_L1_overallSyst_x_StatUncert'
p54
(lp55
F203.0449722113201
aI-1
asS'L_x_qqZHtautau_Region_BMin0_incJet1_distmMMC_J2_D_T2_SpcTauLH_Y2015_LTT1_L1_overallSyst_x_StatUncert'
p56
(lp57
F2.094471020349524
aI-1
asS'L_x_Zhf_Region_BMin0_incJet1_distmMMC_J2_D_T2_SpcTauLH_Y2015_LTT1_L1_overallSyst_x_StatUncert'
p58
(lp59
F51.10734382934982
aI-1
assS'Region_BMin0_incJet1_distMhh_J2_D_T2_SpcTauLH_Y2015_LTT1_L1'
p60
(dp61
S'L_x_qqZHbb_Region_BMin0_incJet1_distMhh_J2_D_T2_SpcTauLH_Y2015_LTT1_L1_overallSyst_x_StatUncert'
p62
(lp63
F3.7273049426817666
aI-1
asS'L_x_WHbb_Region_BMin0_incJet1_distMhh_J2_D_T2_SpcTauLH_Y2015_LTT1_L1_overallSyst_x_StatUncert'
p64
(lp65
F0.16334469037978433
aI-1
asg3
F0.0002249376624448433
sS'L_x_Zhf_Region_BMin0_incJet1_distMhh_J2_D_T2_SpcTauLH_Y2015_LTT1_L1_overallSyst_x_StatUncert'
p66
(lp67
F52.39774820282384
aI-1
asS'L_x_DYtt_Region_BMin0_incJet1_distMhh_J2_D_T2_SpcTauLH_Y2015_LTT1_L1_overallSyst_x_StatUncert'
p68
(lp69
F0.2539031902522355
aI-1
asS'L_x_VBFHtautau_Region_BMin0_incJet1_distMhh_J2_D_T2_SpcTauLH_Y2015_LTT1_L1_overallSyst_x_StatUncert'
p70
(lp71
F0.34012745929997656
aI-1
asg4
F0.01796560129821004
sg7
(lp72
F1.4352217766196187
aF-1.0
asS'L_x_ggFHtautau_Region_BMin0_incJet1_distMhh_J2_D_T2_SpcTauLH_Y2015_LTT1_L1_overallSyst_x_StatUncert'
p73
(lp74
F4.569617484402018
aI-1
asS'L_x_DY_Region_BMin0_incJet1_distMhh_J2_D_T2_SpcTauLH_Y2015_LTT1_L1_overallSyst_x_StatUncert'
p75
(lp76
F0.6113456311525477
aI-1
asS'L_x_ggZHbb_Region_BMin0_incJet1_distMhh_J2_D_T2_SpcTauLH_Y2015_LTT1_L1_overallSyst_x_StatUncert'
p77
(lp78
F1.4144447147586328
aI-1
asg30
(lp79
F6380.531214827342
aI-1
asS'L_x_Zttlf_Region_BMin0_incJet1_distMhh_J2_D_T2_SpcTauLH_Y2015_LTT1_L1_overallSyst_x_StatUncert'
p80
(lp81
F41.82637053619208
aI-1
asS'L_x_hhttbbVBFSM_Region_BMin0_incJet1_distMhh_J2_D_T2_SpcTauLH_Y2015_LTT1_L1_overallSyst_x_HistSyst'
p82
(lp83
F0.05294590655209562
aI-1
asS'L_x_Wtt_Region_BMin0_incJet1_distMhh_J2_D_T2_SpcTauLH_Y2015_LTT1_L1_overallSyst_x_StatUncert'
p84
(lp85
F2.527303881402013
aI-1
asS'L_x_ttH_Region_BMin0_incJet1_distMhh_J2_D_T2_SpcTauLH_Y2015_LTT1_L1_overallSyst_x_StatUncert'
p86
(lp87
F10.805448779628561
aI-1
asS'L_x_W_Region_BMin0_incJet1_distMhh_J2_D_T2_SpcTauLH_Y2015_LTT1_L1_overallSyst_x_StatUncert'
p88
(lp89
F1.1827092857580472
aI-1
asS'L_x_qqZHtautau_Region_BMin0_incJet1_distMhh_J2_D_T2_SpcTauLH_Y2015_LTT1_L1_overallSyst_x_StatUncert'
p90
(lp91
F2.100584481033102
aI-1
asS'L_x_ggZHtautau_Region_BMin0_incJet1_distMhh_J2_D_T2_SpcTauLH_Y2015_LTT1_L1_overallSyst_x_StatUncert'
p92
(lp93
F0.7223964109581325
aI-1
asS'L_x_diboson_Region_BMin0_incJet1_distMhh_J2_D_T2_SpcTauLH_Y2015_LTT1_L1_overallSyst_x_StatUncert'
p94
(lp95
F19.786510550257987
aI-1
asS'L_x_Ztthf_Region_BMin0_incJet1_distMhh_J2_D_T2_SpcTauLH_Y2015_LTT1_L1_overallSyst_x_StatUncert'
p96
(lp97
F532.9296776421841
aI-1
asS'L_x_Fake_Region_BMin0_incJet1_distMhh_J2_D_T2_SpcTauLH_Y2015_LTT1_L1_overallSyst_x_StatUncert'
p98
(lp99
F1530.9847773364818
aI-1
asg20
(lp100
F1.4352217766196187
aI-1
asS'L_x_hhttbb_Region_BMin0_incJet1_distMhh_J2_D_T2_SpcTauLH_Y2015_LTT1_L1_overallSyst_x_HistSyst'
p101
(lp102
F1.3822758700675233
aI-1
asS'L_x_ttbar_Region_BMin0_incJet1_distMhh_J2_D_T2_SpcTauLH_Y2015_LTT1_L1_overallSyst_x_StatUncert'
p103
(lp104
F3968.084055911454
aI-1
asg11
F6341.0
sg44
(lp105
F6381.9664366039615
aI-1
asS'L_x_stop_Region_BMin0_incJet1_distMhh_J2_D_T2_SpcTauLH_Y2015_LTT1_L1_overallSyst_x_StatUncert'
p106
(lp107
F203.02506380439308
aI-1
asS'L_x_Zlf_Region_BMin0_incJet1_distMhh_J2_D_T2_SpcTauLH_Y2015_LTT1_L1_overallSyst_x_StatUncert'
p108
(lp109
F2.9155294215367253
aI-1
asS'L_x_WHtautau_Region_BMin0_incJet1_distMhh_J2_D_T2_SpcTauLH_Y2015_LTT1_L1_overallSyst_x_StatUncert'
p110
(lp111
F0.1629504703120949
aI-1
assS'Region_BMin0_incJet1_distdRbb_J2_D_T2_SpcTauLH_Y2015_LTT0_L1'
p112
(dp113
S'L_x_ggZHbb_Region_BMin0_incJet1_distdRbb_J2_D_T2_SpcTauLH_Y2015_LTT0_L1_overallSyst_x_StatUncert'
p114
(lp115
F5.670206225140415
aI-1
asg3
F6.07763431381225e-05
sS'L_x_ggFHtautau_Region_BMin0_incJet1_distdRbb_J2_D_T2_SpcTauLH_Y2015_LTT0_L1_overallSyst_x_StatUncert'
p116
(lp117
F17.424879106370945
aI-1
asS'L_x_ttbar_Region_BMin0_incJet1_distdRbb_J2_D_T2_SpcTauLH_Y2015_LTT0_L1_overallSyst_x_StatUncert'
p118
(lp119
F58485.93862641091
aI-1
asS'L_x_Ztthf_Region_BMin0_incJet1_distdRbb_J2_D_T2_SpcTauLH_Y2015_LTT0_L1_overallSyst_x_StatUncert'
p120
(lp121
F1654.232052022831
aI-1
asg4
F0.019040895829835706
sS'L_x_qqZHtautau_Region_BMin0_incJet1_distdRbb_J2_D_T2_SpcTauLH_Y2015_LTT0_L1_overallSyst_x_StatUncert'
p122
(lp123
F8.22970135206204
aI-1
asg7
(lp124
F5.965771056496909
aF-1.0
asS'L_x_diboson_Region_BMin0_incJet1_distdRbb_J2_D_T2_SpcTauLH_Y2015_LTT0_L1_overallSyst_x_StatUncert'
p125
(lp126
F150.39084652666656
aI-1
asS'L_x_qqZHbb_Region_BMin0_incJet1_distdRbb_J2_D_T2_SpcTauLH_Y2015_LTT0_L1_overallSyst_x_StatUncert'
p127
(lp128
F17.354411204622096
aI-1
asg30
(lp129
F98159.42764010798
aI-1
asS'L_x_Fake_Region_BMin0_incJet1_distdRbb_J2_D_T2_SpcTauLH_Y2015_LTT0_L1_overallSyst_x_StatUncert'
p130
(lp131
F32793.87210126725
aI-1
asS'L_x_stop_Region_BMin0_incJet1_distdRbb_J2_D_T2_SpcTauLH_Y2015_LTT0_L1_overallSyst_x_StatUncert'
p132
(lp133
F3731.383449043842
aI-1
asS'L_x_WHtautau_Region_BMin0_incJet1_distdRbb_J2_D_T2_SpcTauLH_Y2015_LTT0_L1_overallSyst_x_StatUncert'
p134
(lp135
F0.6528141473474116
aI-1
asg20
(lp136
F5.965771056496909
aI-1
asS'L_x_Zhf_Region_BMin0_incJet1_distdRbb_J2_D_T2_SpcTauLH_Y2015_LTT0_L1_overallSyst_x_StatUncert'
p137
(lp138
F932.4584554214615
aI-1
asS'L_x_WHbb_Region_BMin0_incJet1_distdRbb_J2_D_T2_SpcTauLH_Y2015_LTT0_L1_overallSyst_x_StatUncert'
p139
(lp140
F6.851029224109183
aI-1
asS'L_x_hhttbbVBFSM_Region_BMin0_incJet1_distdRbb_J2_D_T2_SpcTauLH_Y2015_LTT0_L1_overallSyst_x_HistSyst'
p141
(lp142
F0.19545985122122514
aI-1
asS'L_x_DYtt_Region_BMin0_incJet1_distdRbb_J2_D_T2_SpcTauLH_Y2015_LTT0_L1_overallSyst_x_StatUncert'
p143
(lp144
F1.5708600637437633
aI-1
asS'L_x_Zlf_Region_BMin0_incJet1_distdRbb_J2_D_T2_SpcTauLH_Y2015_LTT0_L1_overallSyst_x_StatUncert'
p145
(lp146
F75.712500488655
aI-1
asg11
F98449.0
sS'L_x_DY_Region_BMin0_incJet1_distdRbb_J2_D_T2_SpcTauLH_Y2015_LTT0_L1_overallSyst_x_StatUncert'
p147
(lp148
F12.901896596096325
aI-1
asS'L_x_Wtt_Region_BMin0_incJet1_distdRbb_J2_D_T2_SpcTauLH_Y2015_LTT0_L1_overallSyst_x_StatUncert'
p149
(lp150
F4.988682641593772
aI-1
asS'L_x_W_Region_BMin0_incJet1_distdRbb_J2_D_T2_SpcTauLH_Y2015_LTT0_L1_overallSyst_x_StatUncert'
p151
(lp152
F72.86247615832777
aI-1
asg44
(lp153
F98165.39341116449
aI-1
asS'L_x_VBFHtautau_Region_BMin0_incJet1_distdRbb_J2_D_T2_SpcTauLH_Y2015_LTT0_L1_overallSyst_x_StatUncert'
p154
(lp155
F1.3593814945376108
aI-1
asS'L_x_Zttlf_Region_BMin0_incJet1_distdRbb_J2_D_T2_SpcTauLH_Y2015_LTT0_L1_overallSyst_x_StatUncert'
p156
(lp157
F90.3022351787689
aI-1
asS'L_x_ttH_Region_BMin0_incJet1_distdRbb_J2_D_T2_SpcTauLH_Y2015_LTT0_L1_overallSyst_x_StatUncert'
p158
(lp159
F92.44156483462046
aI-1
asS'L_x_ggZHtautau_Region_BMin0_incJet1_distdRbb_J2_D_T2_SpcTauLH_Y2015_LTT0_L1_overallSyst_x_StatUncert'
p160
(lp161
F2.8294706990264133
aI-1
asS'L_x_hhttbb_Region_BMin0_incJet1_distdRbb_J2_D_T2_SpcTauLH_Y2015_LTT0_L1_overallSyst_x_HistSyst'
p162
(lp163
F5.770311205275683
aI-1
assS'Region_BMin0_incJet1_distdPhiLep0MET_J2_D_T2_SpcTauLH_Y2015_LTT1_L1'
p164
(dp165
S'L_x_VBFHtautau_Region_BMin0_incJet1_distdPhiLep0MET_J2_D_T2_SpcTauLH_Y2015_LTT1_L1_overallSyst_x_StatUncert'
p166
(lp167
F0.34720458694070544
aI-1
asg3
F0.00022481507584212065
sS'L_x_WHbb_Region_BMin0_incJet1_distdPhiLep0MET_J2_D_T2_SpcTauLH_Y2015_LTT1_L1_overallSyst_x_StatUncert'
p168
(lp169
F0.1633936756781697
aI-1
asS'L_x_ttbar_Region_BMin0_incJet1_distdPhiLep0MET_J2_D_T2_SpcTauLH_Y2015_LTT1_L1_overallSyst_x_StatUncert'
p170
(lp171
F3968.228961033853
aI-1
asg4
F0.01796461894009884
sS'L_x_ggFHtautau_Region_BMin0_incJet1_distdPhiLep0MET_J2_D_T2_SpcTauLH_Y2015_LTT1_L1_overallSyst_x_StatUncert'
p172
(lp173
F4.619720349515145
aI-1
asS'L_x_ttH_Region_BMin0_incJet1_distdPhiLep0MET_J2_D_T2_SpcTauLH_Y2015_LTT1_L1_overallSyst_x_StatUncert'
p174
(lp175
F10.805560250381381
aI-1
asS'L_x_Zhf_Region_BMin0_incJet1_distdPhiLep0MET_J2_D_T2_SpcTauLH_Y2015_LTT1_L1_overallSyst_x_StatUncert'
p176
(lp177
F50.776860816026506
aI-1
asg7
(lp178
F1.435847157797395
aF-1.0
asS'L_x_ggZHbb_Region_BMin0_incJet1_distdPhiLep0MET_J2_D_T2_SpcTauLH_Y2015_LTT1_L1_overallSyst_x_StatUncert'
p179
(lp180
F1.4087558265206335
aI-1
asS'L_x_hhttbb_Region_BMin0_incJet1_distdPhiLep0MET_J2_D_T2_SpcTauLH_Y2015_LTT1_L1_overallSyst_x_HistSyst'
p181
(lp182
F1.382731100558551
aI-1
asg30
(lp183
F6386.79213312962
aI-1
asS'L_x_Zttlf_Region_BMin0_incJet1_distdPhiLep0MET_J2_D_T2_SpcTauLH_Y2015_LTT1_L1_overallSyst_x_StatUncert'
p184
(lp185
F46.05416595811765
aI-1
asS'L_x_Wtt_Region_BMin0_incJet1_distdPhiLep0MET_J2_D_T2_SpcTauLH_Y2015_LTT1_L1_overallSyst_x_StatUncert'
p186
(lp187
F2.438527942333428
aI-1
asS'L_x_hhttbbVBFSM_Region_BMin0_incJet1_distdPhiLep0MET_J2_D_T2_SpcTauLH_Y2015_LTT1_L1_overallSyst_x_HistSyst'
p188
(lp189
F0.0531160572388439
aI-1
asS'L_x_W_Region_BMin0_incJet1_distdPhiLep0MET_J2_D_T2_SpcTauLH_Y2015_LTT1_L1_overallSyst_x_StatUncert'
p190
(lp191
F1.2588080250717724
aI-1
asS'L_x_DY_Region_BMin0_incJet1_distdPhiLep0MET_J2_D_T2_SpcTauLH_Y2015_LTT1_L1_overallSyst_x_StatUncert'
p192
(lp193
F0.5960781336809043
aI-1
asS'L_x_WHtautau_Region_BMin0_incJet1_distdPhiLep0MET_J2_D_T2_SpcTauLH_Y2015_LTT1_L1_overallSyst_x_StatUncert'
p194
(lp195
F0.1624093206741099
aI-1
asS'L_x_qqZHbb_Region_BMin0_incJet1_distdPhiLep0MET_J2_D_T2_SpcTauLH_Y2015_LTT1_L1_overallSyst_x_StatUncert'
p196
(lp197
F3.7293095092605966
aI-1
asg20
(lp198
F1.435847157797395
aI-1
asS'L_x_DYtt_Region_BMin0_incJet1_distdPhiLep0MET_J2_D_T2_SpcTauLH_Y2015_LTT1_L1_overallSyst_x_StatUncert'
p199
(lp200
F0.2539031900438802
aI-1
asS'L_x_Ztthf_Region_BMin0_incJet1_distdPhiLep0MET_J2_D_T2_SpcTauLH_Y2015_LTT1_L1_overallSyst_x_StatUncert'
p201
(lp202
F536.9108794430592
aI-1
asg11
F6350.0
sS'L_x_ggZHtautau_Region_BMin0_incJet1_distdPhiLep0MET_J2_D_T2_SpcTauLH_Y2015_LTT1_L1_overallSyst_x_StatUncert'
p203
(lp204
F0.72342710278058
aI-1
asS'L_x_Zlf_Region_BMin0_incJet1_distdPhiLep0MET_J2_D_T2_SpcTauLH_Y2015_LTT1_L1_overallSyst_x_StatUncert'
p205
(lp206
F2.4166630299401053
aI-1
asS'L_x_stop_Region_BMin0_incJet1_distdPhiLep0MET_J2_D_T2_SpcTauLH_Y2015_LTT1_L1_overallSyst_x_StatUncert'
p207
(lp208
F203.009256122953
aI-1
asg44
(lp209
F6388.227980287418
aI-1
asS'L_x_Fake_Region_BMin0_incJet1_distdPhiLep0MET_J2_D_T2_SpcTauLH_Y2015_LTT1_L1_overallSyst_x_StatUncert'
p210
(lp211
F1530.8860466199958
aI-1
asS'L_x_diboson_Region_BMin0_incJet1_distdPhiLep0MET_J2_D_T2_SpcTauLH_Y2015_LTT1_L1_overallSyst_x_StatUncert'
p212
(lp213
F19.901497923920555
aI-1
asS'L_x_qqZHtautau_Region_BMin0_incJet1_distdPhiLep0MET_J2_D_T2_SpcTauLH_Y2015_LTT1_L1_overallSyst_x_StatUncert'
p214
(lp215
F2.100704268874229
aI-1
assS'Region_BMin0_incJet1_distdPhiHBB_J2_D_T2_SpcTauLH_Y2015_LTT0_L1'
p216
(dp217
g3
F4.450336927019002e-05
sS'L_x_DY_Region_BMin0_incJet1_distdPhiHBB_J2_D_T2_SpcTauLH_Y2015_LTT0_L1_overallSyst_x_StatUncert'
p218
(lp219
F9.261644611306968
aI-1
asg4
F0.013081874357119
sS'L_x_Wtt_Region_BMin0_incJet1_distdPhiHBB_J2_D_T2_SpcTauLH_Y2015_LTT0_L1_overallSyst_x_StatUncert'
p220
(lp221
F3.837367721005293
aI-1
asg7
(lp222
F3.8456201318137047
aF-1.0
asg30
(lp223
F86411.88734421601
aI-1
asS'L_x_diboson_Region_BMin0_incJet1_distdPhiHBB_J2_D_T2_SpcTauLH_Y2015_LTT0_L1_overallSyst_x_StatUncert'
p224
(lp225
F114.15231733843554
aI-1
asS'L_x_qqZHtautau_Region_BMin0_incJet1_distdPhiHBB_J2_D_T2_SpcTauLH_Y2015_LTT0_L1_overallSyst_x_StatUncert'
p226
(lp227
F5.0162256832132455
aI-1
asS'L_x_DYtt_Region_BMin0_incJet1_distdPhiHBB_J2_D_T2_SpcTauLH_Y2015_LTT0_L1_overallSyst_x_StatUncert'
p228
(lp229
F2.146204648607904
aI-1
asS'L_x_WHtautau_Region_BMin0_incJet1_distdPhiHBB_J2_D_T2_SpcTauLH_Y2015_LTT0_L1_overallSyst_x_StatUncert'
p230
(lp231
F0.4986786521380506
aI-1
asS'L_x_W_Region_BMin0_incJet1_distdPhiHBB_J2_D_T2_SpcTauLH_Y2015_LTT0_L1_overallSyst_x_StatUncert'
p232
(lp233
F66.0455589237168
aI-1
asS'L_x_ttbar_Region_BMin0_incJet1_distdPhiHBB_J2_D_T2_SpcTauLH_Y2015_LTT0_L1_overallSyst_x_StatUncert'
p234
(lp235
F51617.447144130056
aI-1
asS'L_x_ttH_Region_BMin0_incJet1_distdPhiHBB_J2_D_T2_SpcTauLH_Y2015_LTT0_L1_overallSyst_x_StatUncert'
p236
(lp237
F84.37907600329162
aI-1
asS'L_x_Zhf_Region_BMin0_incJet1_distdPhiHBB_J2_D_T2_SpcTauLH_Y2015_LTT0_L1_overallSyst_x_StatUncert'
p238
(lp239
F675.4019513783048
aI-1
asS'L_x_ggZHtautau_Region_BMin0_incJet1_distdPhiHBB_J2_D_T2_SpcTauLH_Y2015_LTT0_L1_overallSyst_x_StatUncert'
p240
(lp241
F1.9897748693897757
aI-1
asg20
(lp242
F3.8456201318137047
aI-1
asS'L_x_hhttbbVBFSM_Region_BMin0_incJet1_distdPhiHBB_J2_D_T2_SpcTauLH_Y2015_LTT0_L1_overallSyst_x_HistSyst'
p243
(lp244
F0.17179348238514333
aI-1
asS'L_x_qqZHbb_Region_BMin0_incJet1_distdPhiHBB_J2_D_T2_SpcTauLH_Y2015_LTT0_L1_overallSyst_x_StatUncert'
p245
(lp246
F10.234645780903843
aI-1
asS'L_x_hhttbb_Region_BMin0_incJet1_distdPhiHBB_J2_D_T2_SpcTauLH_Y2015_LTT0_L1_overallSyst_x_HistSyst'
p247
(lp248
F3.6738266494285607
aI-1
asg11
F86601.0
sg44
(lp249
F86415.73296434783
aI-1
asS'L_x_Zlf_Region_BMin0_incJet1_distdPhiHBB_J2_D_T2_SpcTauLH_Y2015_LTT0_L1_overallSyst_x_StatUncert'
p250
(lp251
F51.451450165929
aI-1
asS'L_x_stop_Region_BMin0_incJet1_distdPhiHBB_J2_D_T2_SpcTauLH_Y2015_LTT0_L1_overallSyst_x_StatUncert'
p252
(lp253
F3174.9395519627014
aI-1
asS'L_x_VBFHtautau_Region_BMin0_incJet1_distdPhiHBB_J2_D_T2_SpcTauLH_Y2015_LTT0_L1_overallSyst_x_StatUncert'
p254
(lp255
F1.1078909276657336
aI-1
asS'L_x_WHbb_Region_BMin0_incJet1_distdPhiHBB_J2_D_T2_SpcTauLH_Y2015_LTT0_L1_overallSyst_x_StatUncert'
p256
(lp257
F5.573017498855912
aI-1
asS'L_x_ggZHbb_Region_BMin0_incJet1_distdPhiHBB_J2_D_T2_SpcTauLH_Y2015_LTT0_L1_overallSyst_x_StatUncert'
p258
(lp259
F3.8812380715584793
aI-1
asS'L_x_Fake_Region_BMin0_incJet1_distdPhiHBB_J2_D_T2_SpcTauLH_Y2015_LTT0_L1_overallSyst_x_StatUncert'
p260
(lp261
F29276.050253873073
aI-1
asS'L_x_ggFHtautau_Region_BMin0_incJet1_distdPhiHBB_J2_D_T2_SpcTauLH_Y2015_LTT0_L1_overallSyst_x_StatUncert'
p262
(lp263
F12.119120458967807
aI-1
asS'L_x_Zttlf_Region_BMin0_incJet1_distdPhiHBB_J2_D_T2_SpcTauLH_Y2015_LTT0_L1_overallSyst_x_StatUncert'
p264
(lp265
F63.29855424072403
aI-1
asS'L_x_Ztthf_Region_BMin0_incJet1_distdPhiHBB_J2_D_T2_SpcTauLH_Y2015_LTT0_L1_overallSyst_x_StatUncert'
p266
(lp267
F1233.0556772761495
aI-1
assS'Region_BMin0_incJet1_distmbb_J2_D_T2_SpcTauLH_Y2015_LTT1_L1'
p268
(dp269
g3
F0.00022458998611964203
sg4
F0.01795562564031269
sS'L_x_ggFHtautau_Region_BMin0_incJet1_distmbb_J2_D_T2_SpcTauLH_Y2015_LTT1_L1_overallSyst_x_StatUncert'
p270
(lp271
F4.62213992385374
aI-1
asS'L_x_hhttbbVBFSM_Region_BMin0_incJet1_distmbb_J2_D_T2_SpcTauLH_Y2015_LTT1_L1_overallSyst_x_HistSyst'
p272
(lp273
F0.05311605599359377
aI-1
asg7
(lp274
F1.4358471921525495
aF-1.0
asS'L_x_WHbb_Region_BMin0_incJet1_distmbb_J2_D_T2_SpcTauLH_Y2015_LTT1_L1_overallSyst_x_StatUncert'
p275
(lp276
F0.1633982217702572
aI-1
asS'L_x_Zhf_Region_BMin0_incJet1_distmbb_J2_D_T2_SpcTauLH_Y2015_LTT1_L1_overallSyst_x_StatUncert'
p277
(lp278
F52.84751028146292
aI-1
asg30
(lp279
F6393.193289515833
aI-1
asS'L_x_ggZHbb_Region_BMin0_incJet1_distmbb_J2_D_T2_SpcTauLH_Y2015_LTT1_L1_overallSyst_x_StatUncert'
p280
(lp281
F1.4165289523638105
aI-1
asS'L_x_Zttlf_Region_BMin0_incJet1_distmbb_J2_D_T2_SpcTauLH_Y2015_LTT1_L1_overallSyst_x_StatUncert'
p282
(lp283
F48.29804367548739
aI-1
asS'L_x_DY_Region_BMin0_incJet1_distmbb_J2_D_T2_SpcTauLH_Y2015_LTT1_L1_overallSyst_x_StatUncert'
p284
(lp285
F0.5709914922413889
aI-1
asS'L_x_ttbar_Region_BMin0_incJet1_distmbb_J2_D_T2_SpcTauLH_Y2015_LTT1_L1_overallSyst_x_StatUncert'
p286
(lp287
F3968.228015796822
aI-1
asS'L_x_diboson_Region_BMin0_incJet1_distmbb_J2_D_T2_SpcTauLH_Y2015_LTT1_L1_overallSyst_x_StatUncert'
p288
(lp289
F19.93372196695356
aI-1
asS'L_x_VBFHtautau_Region_BMin0_incJet1_distmbb_J2_D_T2_SpcTauLH_Y2015_LTT1_L1_overallSyst_x_StatUncert'
p290
(lp291
F0.34721884489743066
aI-1
asS'L_x_ttH_Region_BMin0_incJet1_distmbb_J2_D_T2_SpcTauLH_Y2015_LTT1_L1_overallSyst_x_StatUncert'
p292
(lp293
F10.805560244379057
aI-1
asS'L_x_qqZHtautau_Region_BMin0_incJet1_distmbb_J2_D_T2_SpcTauLH_Y2015_LTT1_L1_overallSyst_x_StatUncert'
p294
(lp295
F2.1014795190635036
aI-1
asg20
(lp296
F1.4358471921525495
aI-1
asS'L_x_Fake_Region_BMin0_incJet1_distmbb_J2_D_T2_SpcTauLH_Y2015_LTT1_L1_overallSyst_x_StatUncert'
p297
(lp298
F1530.91063206923
aI-1
asS'L_x_W_Region_BMin0_incJet1_distmbb_J2_D_T2_SpcTauLH_Y2015_LTT1_L1_overallSyst_x_StatUncert'
p299
(lp300
F1.2593554904973372
aI-1
asg11
F6350.0
sS'L_x_Ztthf_Region_BMin0_incJet1_distmbb_J2_D_T2_SpcTauLH_Y2015_LTT1_L1_overallSyst_x_StatUncert'
p301
(lp302
F538.2137774837082
aI-1
asS'L_x_Wtt_Region_BMin0_incJet1_distmbb_J2_D_T2_SpcTauLH_Y2015_LTT1_L1_overallSyst_x_StatUncert'
p303
(lp304
F2.551603057583572
aI-1
asS'L_x_WHtautau_Region_BMin0_incJet1_distmbb_J2_D_T2_SpcTauLH_Y2015_LTT1_L1_overallSyst_x_StatUncert'
p305
(lp306
F0.16272984234284937
aI-1
asS'L_x_DYtt_Region_BMin0_incJet1_distmbb_J2_D_T2_SpcTauLH_Y2015_LTT1_L1_overallSyst_x_StatUncert'
p307
(lp308
F0.25127980817225193
aI-1
asg44
(lp309
F6394.629136707986
aI-1
asS'L_x_ggZHtautau_Region_BMin0_incJet1_distmbb_J2_D_T2_SpcTauLH_Y2015_LTT1_L1_overallSyst_x_StatUncert'
p310
(lp311
F0.7236892413203733
aI-1
asS'L_x_qqZHbb_Region_BMin0_incJet1_distmbb_J2_D_T2_SpcTauLH_Y2015_LTT1_L1_overallSyst_x_StatUncert'
p312
(lp313
F3.7293099277244366
aI-1
asS'L_x_hhttbb_Region_BMin0_incJet1_distmbb_J2_D_T2_SpcTauLH_Y2015_LTT1_L1_overallSyst_x_HistSyst'
p314
(lp315
F1.3827311361589558
aI-1
asS'L_x_stop_Region_BMin0_incJet1_distmbb_J2_D_T2_SpcTauLH_Y2015_LTT1_L1_overallSyst_x_StatUncert'
p316
(lp317
F202.99353712529043
aI-1
asS'L_x_Zlf_Region_BMin0_incJet1_distmbb_J2_D_T2_SpcTauLH_Y2015_LTT1_L1_overallSyst_x_StatUncert'
p318
(lp319
F3.0627665506687762
aI-1
assS'Region_BMin0_incJet1_distmbb_J2_D_T2_SpcTauLH_Y2015_LTT0_L1'
p320
(dp321
S'L_x_ttbar_Region_BMin0_incJet1_distmbb_J2_D_T2_SpcTauLH_Y2015_LTT0_L1_overallSyst_x_StatUncert'
p322
(lp323
F58485.94089880711
aI-1
asg3
F6.0761324861104044e-05
sS'L_x_qqZHbb_Region_BMin0_incJet1_distmbb_J2_D_T2_SpcTauLH_Y2015_LTT0_L1_overallSyst_x_StatUncert'
p324
(lp325
F17.354402282459002
aI-1
asS'L_x_Zhf_Region_BMin0_incJet1_distmbb_J2_D_T2_SpcTauLH_Y2015_LTT0_L1_overallSyst_x_StatUncert'
p326
(lp327
F944.0376610388236
aI-1
asg4
F0.01903854317963984
sS'L_x_Zlf_Region_BMin0_incJet1_distmbb_J2_D_T2_SpcTauLH_Y2015_LTT0_L1_overallSyst_x_StatUncert'
p328
(lp329
F78.63137937960477
aI-1
asS'L_x_hhttbb_Region_BMin0_incJet1_distmbb_J2_D_T2_SpcTauLH_Y2015_LTT0_L1_overallSyst_x_HistSyst'
p330
(lp331
F5.770311114613616
aI-1
asg7
(lp332
F5.9657710090043246
aF-1.0
asS'L_x_qqZHtautau_Region_BMin0_incJet1_distmbb_J2_D_T2_SpcTauLH_Y2015_LTT0_L1_overallSyst_x_StatUncert'
p333
(lp334
F8.229701578513508
aI-1
asS'L_x_diboson_Region_BMin0_incJet1_distmbb_J2_D_T2_SpcTauLH_Y2015_LTT0_L1_overallSyst_x_StatUncert'
p335
(lp336
F150.4843990646827
aI-1
asg30
(lp337
F98183.68876323289
aI-1
asS'L_x_W_Region_BMin0_incJet1_distmbb_J2_D_T2_SpcTauLH_Y2015_LTT0_L1_overallSyst_x_StatUncert'
p338
(lp339
F73.04467980158583
aI-1
asS'L_x_Zttlf_Region_BMin0_incJet1_distmbb_J2_D_T2_SpcTauLH_Y2015_LTT0_L1_overallSyst_x_StatUncert'
p340
(lp341
F91.00049818031016
aI-1
asS'L_x_WHbb_Region_BMin0_incJet1_distmbb_J2_D_T2_SpcTauLH_Y2015_LTT0_L1_overallSyst_x_StatUncert'
p342
(lp343
F6.851028679370301
aI-1
asS'L_x_ggZHtautau_Region_BMin0_incJet1_distmbb_J2_D_T2_SpcTauLH_Y2015_LTT0_L1_overallSyst_x_StatUncert'
p344
(lp345
F2.8294488185271023
aI-1
asS'L_x_DYtt_Region_BMin0_incJet1_distmbb_J2_D_T2_SpcTauLH_Y2015_LTT0_L1_overallSyst_x_StatUncert'
p346
(lp347
F1.683448077559669
aI-1
asS'L_x_WHtautau_Region_BMin0_incJet1_distmbb_J2_D_T2_SpcTauLH_Y2015_LTT0_L1_overallSyst_x_StatUncert'
p348
(lp349
F0.653509196951947
aI-1
asS'L_x_Ztthf_Region_BMin0_incJet1_distmbb_J2_D_T2_SpcTauLH_Y2015_LTT0_L1_overallSyst_x_StatUncert'
p350
(lp351
F1662.7462507087237
aI-1
asg20
(lp352
F5.9657710090043246
aI-1
asS'L_x_Wtt_Region_BMin0_incJet1_distmbb_J2_D_T2_SpcTauLH_Y2015_LTT0_L1_overallSyst_x_StatUncert'
p353
(lp354
F4.995031873504759
aI-1
asS'L_x_DY_Region_BMin0_incJet1_distmbb_J2_D_T2_SpcTauLH_Y2015_LTT0_L1_overallSyst_x_StatUncert'
p355
(lp356
F12.984239691696672
aI-1
asS'L_x_ggFHtautau_Region_BMin0_incJet1_distmbb_J2_D_T2_SpcTauLH_Y2015_LTT0_L1_overallSyst_x_StatUncert'
p357
(lp358
F17.425253908727726
aI-1
asg11
F98449.0
sS'L_x_Fake_Region_BMin0_incJet1_distmbb_J2_D_T2_SpcTauLH_Y2015_LTT0_L1_overallSyst_x_StatUncert'
p359
(lp360
F32793.942362891576
aI-1
asS'L_x_VBFHtautau_Region_BMin0_incJet1_distmbb_J2_D_T2_SpcTauLH_Y2015_LTT0_L1_overallSyst_x_StatUncert'
p361
(lp362
F1.3593814562797313
aI-1
asS'L_x_ggZHbb_Region_BMin0_incJet1_distmbb_J2_D_T2_SpcTauLH_Y2015_LTT0_L1_overallSyst_x_StatUncert'
p363
(lp364
F5.670208069079868
aI-1
asg44
(lp365
F98189.65453424187
aI-1
asS'L_x_hhttbbVBFSM_Region_BMin0_incJet1_distmbb_J2_D_T2_SpcTauLH_Y2015_LTT0_L1_overallSyst_x_HistSyst'
p366
(lp367
F0.1954598943907097
aI-1
asS'L_x_stop_Region_BMin0_incJet1_distmbb_J2_D_T2_SpcTauLH_Y2015_LTT0_L1_overallSyst_x_StatUncert'
p368
(lp369
F3731.3834146360236
aI-1
asS'L_x_ttH_Region_BMin0_incJet1_distmbb_J2_D_T2_SpcTauLH_Y2015_LTT0_L1_overallSyst_x_StatUncert'
p370
(lp371
F92.44156509174964
aI-1
assS'Region_BMin0_incJet1_distMtW_J2_D_T2_SpcTauLH_Y2015_LTT0_L1'
p372
(dp373
S'L_x_WHtautau_Region_BMin0_incJet1_distMtW_J2_D_T2_SpcTauLH_Y2015_LTT0_L1_overallSyst_x_StatUncert'
p374
(lp375
F0.6528204795271902
aI-1
asS'L_x_ttH_Region_BMin0_incJet1_distMtW_J2_D_T2_SpcTauLH_Y2015_LTT0_L1_overallSyst_x_StatUncert'
p376
(lp377
F92.04816147817965
aI-1
asS'L_x_DYtt_Region_BMin0_incJet1_distMtW_J2_D_T2_SpcTauLH_Y2015_LTT0_L1_overallSyst_x_StatUncert'
p378
(lp379
F1.5834485325591008
aI-1
asS'L_x_hhttbbVBFSM_Region_BMin0_incJet1_distMtW_J2_D_T2_SpcTauLH_Y2015_LTT0_L1_overallSyst_x_HistSyst'
p380
(lp381
F0.1954507266428787
aI-1
asg4
F0.01906554704972915
sS'L_x_Zhf_Region_BMin0_incJet1_distMtW_J2_D_T2_SpcTauLH_Y2015_LTT0_L1_overallSyst_x_StatUncert'
p382
(lp383
F921.0821460364485
aI-1
asg3
F6.093391332791224e-05
sS'L_x_Wtt_Region_BMin0_incJet1_distMtW_J2_D_T2_SpcTauLH_Y2015_LTT0_L1_overallSyst_x_StatUncert'
p384
(lp385
F5.056432863410079
aI-1
asg7
(lp386
F5.965762145082521
aF-1.0
asg30
(lp387
F97905.44902274905
aI-1
asS'L_x_ttbar_Region_BMin0_incJet1_distMtW_J2_D_T2_SpcTauLH_Y2015_LTT0_L1_overallSyst_x_StatUncert'
p388
(lp389
F58270.43943402221
aI-1
asS'L_x_stop_Region_BMin0_incJet1_distMtW_J2_D_T2_SpcTauLH_Y2015_LTT0_L1_overallSyst_x_StatUncert'
p390
(lp391
F3718.3314544078585
aI-1
asS'L_x_Zlf_Region_BMin0_incJet1_distMtW_J2_D_T2_SpcTauLH_Y2015_LTT0_L1_overallSyst_x_StatUncert'
p392
(lp393
F73.74506028224448
aI-1
asS'L_x_W_Region_BMin0_incJet1_distMtW_J2_D_T2_SpcTauLH_Y2015_LTT0_L1_overallSyst_x_StatUncert'
p394
(lp395
F72.85193198921881
aI-1
asS'L_x_hhttbb_Region_BMin0_incJet1_distMtW_J2_D_T2_SpcTauLH_Y2015_LTT0_L1_overallSyst_x_HistSyst'
p396
(lp397
F5.770311418439642
aI-1
asg20
(lp398
F5.965762145082521
aI-1
asS'L_x_ggZHbb_Region_BMin0_incJet1_distMtW_J2_D_T2_SpcTauLH_Y2015_LTT0_L1_overallSyst_x_StatUncert'
p399
(lp400
F5.661349564319765
aI-1
asS'L_x_Ztthf_Region_BMin0_incJet1_distMtW_J2_D_T2_SpcTauLH_Y2015_LTT0_L1_overallSyst_x_StatUncert'
p401
(lp402
F1654.0346523072624
aI-1
asS'L_x_diboson_Region_BMin0_incJet1_distMtW_J2_D_T2_SpcTauLH_Y2015_LTT0_L1_overallSyst_x_StatUncert'
p403
(lp404
F150.45473888061494
aI-1
asS'L_x_qqZHtautau_Region_BMin0_incJet1_distMtW_J2_D_T2_SpcTauLH_Y2015_LTT0_L1_overallSyst_x_StatUncert'
p405
(lp406
F8.22970152166625
aI-1
asg11
F98247.0
sS'L_x_Fake_Region_BMin0_incJet1_distMtW_J2_D_T2_SpcTauLH_Y2015_LTT0_L1_overallSyst_x_StatUncert'
p407
(lp408
F32793.54338037582
aI-1
asS'L_x_VBFHtautau_Region_BMin0_incJet1_distMtW_J2_D_T2_SpcTauLH_Y2015_LTT0_L1_overallSyst_x_StatUncert'
p409
(lp410
F1.3592886704872544
aI-1
asg44
(lp411
F97911.41478489414
aI-1
asS'L_x_DY_Region_BMin0_incJet1_distMtW_J2_D_T2_SpcTauLH_Y2015_LTT0_L1_overallSyst_x_StatUncert'
p412
(lp413
F12.902633199529687
aI-1
asS'L_x_qqZHbb_Region_BMin0_incJet1_distMtW_J2_D_T2_SpcTauLH_Y2015_LTT0_L1_overallSyst_x_StatUncert'
p414
(lp415
F17.353773317737854
aI-1
asS'L_x_ggFHtautau_Region_BMin0_incJet1_distMtW_J2_D_T2_SpcTauLH_Y2015_LTT0_L1_overallSyst_x_StatUncert'
p416
(lp417
F17.424911515204908
aI-1
asS'L_x_ggZHtautau_Region_BMin0_incJet1_distMtW_J2_D_T2_SpcTauLH_Y2015_LTT0_L1_overallSyst_x_StatUncert'
p418
(lp419
F2.8294719155387975
aI-1
asS'L_x_Zttlf_Region_BMin0_incJet1_distMtW_J2_D_T2_SpcTauLH_Y2015_LTT0_L1_overallSyst_x_StatUncert'
p420
(lp421
F79.015417545538
aI-1
asS'L_x_WHbb_Region_BMin0_incJet1_distMtW_J2_D_T2_SpcTauLH_Y2015_LTT0_L1_overallSyst_x_StatUncert'
p422
(lp423
F6.848813843683833
aI-1
assS'Region_BMin0_incJet1_Y2015_DZllbbCR_T2_L2_distmLL_J2'
p424
(dp425
S'L_x_ttbar_Region_BMin0_incJet1_Y2015_DZllbbCR_T2_L2_distmLL_J2_overallSyst_x_StatUncert'
p426
(lp427
F34034.46319559037
aI-1
asS'L_x_ttH_Region_BMin0_incJet1_Y2015_DZllbbCR_T2_L2_distmLL_J2_overallSyst_x_StatUncert'
p428
(lp429
F32.447648273779414
aI-1
asg30
(lp430
F96027.84212538638
aI-1
asS'L_x_W_Region_BMin0_incJet1_Y2015_DZllbbCR_T2_L2_distmLL_J2_overallSyst_x_StatUncert'
p431
(lp432
F20.51192687937288
aI-1
asS'L_x_Zhf_Region_BMin0_incJet1_Y2015_DZllbbCR_T2_L2_distmLL_J2_overallSyst_x_StatUncert'
p433
(lp434
F55872.858514863576
aI-1
asS'L_x_VBFHtautau_Region_BMin0_incJet1_Y2015_DZllbbCR_T2_L2_distmLL_J2_overallSyst_x_StatUncert'
p435
(lp436
F0.03964549832769859
aI-1
asS'L_x_DYtt_Region_BMin0_incJet1_Y2015_DZllbbCR_T2_L2_distmLL_J2_overallSyst_x_StatUncert'
p437
(lp438
F0.04613530749262826
aI-1
asg44
(lp439
F96027.84212538638
aI-1
asg20
(lp440
F0.0
aI-1
asg4
F0.0
sS'L_x_diboson_Region_BMin0_incJet1_Y2015_DZllbbCR_T2_L2_distmLL_J2_overallSyst_x_StatUncert'
p441
(lp442
F395.8545888235845
aI-1
asS'L_x_stop_Region_BMin0_incJet1_Y2015_DZllbbCR_T2_L2_distmLL_J2_overallSyst_x_StatUncert'
p443
(lp444
F1204.9489717937408
aI-1
asg3
F0.0
sS'L_x_DY_Region_BMin0_incJet1_Y2015_DZllbbCR_T2_L2_distmLL_J2_overallSyst_x_StatUncert'
p445
(lp446
F70.90425618015676
aI-1
asg7
(lp447
F0.0
aF-1.0
asS'L_x_Zlf_Region_BMin0_incJet1_Y2015_DZllbbCR_T2_L2_distmLL_J2_overallSyst_x_StatUncert'
p448
(lp449
F4395.767242175986
aI-1
asg11
F96032.0
ssS'Region_BMin0_incJet1_distdPhiHttMET_J2_D_T2_SpcTauLH_Y2015_LTT1_L1'
p450
(dp451
S'L_x_hhttbbVBFSM_Region_BMin0_incJet1_distdPhiHttMET_J2_D_T2_SpcTauLH_Y2015_LTT1_L1_overallSyst_x_HistSyst'
p452
(lp453
F0.053116044272568254
aI-1
asg3
F0.00022486098574248065
sS'L_x_Zhf_Region_BMin0_incJet1_distdPhiHttMET_J2_D_T2_SpcTauLH_Y2015_LTT1_L1_overallSyst_x_StatUncert'
p454
(lp455
F51.7258067061959
aI-1
asS'L_x_Wtt_Region_BMin0_incJet1_distdPhiHttMET_J2_D_T2_SpcTauLH_Y2015_LTT1_L1_overallSyst_x_StatUncert'
p456
(lp457
F2.4375079142360208
aI-1
asg4
F0.017966454864908103
sS'L_x_W_Region_BMin0_incJet1_distdPhiHttMET_J2_D_T2_SpcTauLH_Y2015_LTT1_L1_overallSyst_x_StatUncert'
p458
(lp459
F1.2638877076273805
aI-1
asS'L_x_WHtautau_Region_BMin0_incJet1_distdPhiHttMET_J2_D_T2_SpcTauLH_Y2015_LTT1_L1_overallSyst_x_StatUncert'
p460
(lp461
F0.16241032169419814
aI-1
asg7
(lp462
F1.4358474993400259
aF-1.0
asS'L_x_ggZHtautau_Region_BMin0_incJet1_distdPhiHttMET_J2_D_T2_SpcTauLH_Y2015_LTT1_L1_overallSyst_x_StatUncert'
p463
(lp464
F0.7235989504909233
aI-1
asS'L_x_qqZHbb_Region_BMin0_incJet1_distdPhiHttMET_J2_D_T2_SpcTauLH_Y2015_LTT1_L1_overallSyst_x_StatUncert'
p465
(lp466
F3.7293097283463683
aI-1
asS'L_x_Zttlf_Region_BMin0_incJet1_distdPhiHttMET_J2_D_T2_SpcTauLH_Y2015_LTT1_L1_overallSyst_x_StatUncert'
p467
(lp468
F44.288234897992865
aI-1
asS'L_x_hhttbb_Region_BMin0_incJet1_distdPhiHttMET_J2_D_T2_SpcTauLH_Y2015_LTT1_L1_overallSyst_x_HistSyst'
p469
(lp470
F1.3827314550674574
aI-1
asg30
(lp471
F6385.489659750994
aI-1
asS'L_x_DYtt_Region_BMin0_incJet1_distdPhiHttMET_J2_D_T2_SpcTauLH_Y2015_LTT1_L1_overallSyst_x_StatUncert'
p472
(lp473
F0.24807994047474408
aI-1
asS'L_x_diboson_Region_BMin0_incJet1_distdPhiHttMET_J2_D_T2_SpcTauLH_Y2015_LTT1_L1_overallSyst_x_StatUncert'
p474
(lp475
F19.93914598011389
aI-1
asS'L_x_DY_Region_BMin0_incJet1_distdPhiHttMET_J2_D_T2_SpcTauLH_Y2015_LTT1_L1_overallSyst_x_StatUncert'
p476
(lp477
F0.6015848917833864
aI-1
asS'L_x_qqZHtautau_Region_BMin0_incJet1_distdPhiHttMET_J2_D_T2_SpcTauLH_Y2015_LTT1_L1_overallSyst_x_StatUncert'
p478
(lp479
F2.1006518269969163
aI-1
asS'L_x_ttH_Region_BMin0_incJet1_distdPhiHttMET_J2_D_T2_SpcTauLH_Y2015_LTT1_L1_overallSyst_x_StatUncert'
p480
(lp481
F10.80556035719052
aI-1
asS'L_x_ggFHtautau_Region_BMin0_incJet1_distdPhiHttMET_J2_D_T2_SpcTauLH_Y2015_LTT1_L1_overallSyst_x_StatUncert'
p482
(lp483
F4.6246302851565995
aI-1
asS'L_x_VBFHtautau_Region_BMin0_incJet1_distdPhiHttMET_J2_D_T2_SpcTauLH_Y2015_LTT1_L1_overallSyst_x_StatUncert'
p484
(lp485
F0.3469471571195449
aI-1
asg20
(lp486
F1.4358474993400259
aI-1
asS'L_x_ggZHbb_Region_BMin0_incJet1_distdPhiHttMET_J2_D_T2_SpcTauLH_Y2015_LTT1_L1_overallSyst_x_StatUncert'
p487
(lp488
F1.4042883097129797
aI-1
asS'L_x_Ztthf_Region_BMin0_incJet1_distdPhiHttMET_J2_D_T2_SpcTauLH_Y2015_LTT1_L1_overallSyst_x_StatUncert'
p489
(lp490
F536.3140113416482
aI-1
asS'L_x_WHbb_Region_BMin0_incJet1_distdPhiHttMET_J2_D_T2_SpcTauLH_Y2015_LTT1_L1_overallSyst_x_StatUncert'
p491
(lp492
F0.1634556695799219
aI-1
asg11
F6350.0
sS'L_x_stop_Region_BMin0_incJet1_distdPhiHttMET_J2_D_T2_SpcTauLH_Y2015_LTT1_L1_overallSyst_x_StatUncert'
p493
(lp494
F202.79672724729784
aI-1
asg44
(lp495
F6386.925507250335
aI-1
asS'L_x_Zlf_Region_BMin0_incJet1_distdPhiHttMET_J2_D_T2_SpcTauLH_Y2015_LTT1_L1_overallSyst_x_StatUncert'
p496
(lp497
F2.699787778133377
aI-1
asS'L_x_ttbar_Region_BMin0_incJet1_distdPhiHttMET_J2_D_T2_SpcTauLH_Y2015_LTT1_L1_overallSyst_x_StatUncert'
p498
(lp499
F3968.2280921351066
aI-1
asS'L_x_Fake_Region_BMin0_incJet1_distdPhiHttMET_J2_D_T2_SpcTauLH_Y2015_LTT1_L1_overallSyst_x_StatUncert'
p500
(lp501
F1530.8859406040963
aI-1
assS'Region_BMin0_incJet1_distMETCent_J2_D_T2_SpcTauLH_Y2015_LTT0_L1'
p502
(dp503
g3
F6.077020403397969e-05
sS'L_x_WHtautau_Region_BMin0_incJet1_distMETCent_J2_D_T2_SpcTauLH_Y2015_LTT0_L1_overallSyst_x_StatUncert'
p504
(lp505
F0.6530090139947156
aI-1
asg4
F0.01903993360491804
sS'L_x_hhttbbVBFSM_Region_BMin0_incJet1_distMETCent_J2_D_T2_SpcTauLH_Y2015_LTT0_L1_overallSyst_x_HistSyst'
p506
(lp507
F0.19545979484716267
aI-1
asS'L_x_Zttlf_Region_BMin0_incJet1_distMETCent_J2_D_T2_SpcTauLH_Y2015_LTT0_L1_overallSyst_x_StatUncert'
p508
(lp509
F88.14474494004926
aI-1
asg7
(lp510
F5.9657706897762655
aF-1.0
asg30
(lp511
F98169.33782944849
aI-1
asS'L_x_VBFHtautau_Region_BMin0_incJet1_distMETCent_J2_D_T2_SpcTauLH_Y2015_LTT0_L1_overallSyst_x_StatUncert'
p512
(lp513
F1.35857353055846
aI-1
asS'L_x_qqZHbb_Region_BMin0_incJet1_distMETCent_J2_D_T2_SpcTauLH_Y2015_LTT0_L1_overallSyst_x_StatUncert'
p514
(lp515
F17.354408047545398
aI-1
asS'L_x_Ztthf_Region_BMin0_incJet1_distMETCent_J2_D_T2_SpcTauLH_Y2015_LTT0_L1_overallSyst_x_StatUncert'
p516
(lp517
F1664.4844612834895
aI-1
asS'L_x_Fake_Region_BMin0_incJet1_distMETCent_J2_D_T2_SpcTauLH_Y2015_LTT0_L1_overallSyst_x_StatUncert'
p518
(lp519
F32793.924341231475
aI-1
asS'L_x_Wtt_Region_BMin0_incJet1_distMETCent_J2_D_T2_SpcTauLH_Y2015_LTT0_L1_overallSyst_x_StatUncert'
p520
(lp521
F5.006449874451645
aI-1
asS'L_x_ttH_Region_BMin0_incJet1_distMETCent_J2_D_T2_SpcTauLH_Y2015_LTT0_L1_overallSyst_x_StatUncert'
p522
(lp523
F92.44156945268789
aI-1
asS'L_x_ggFHtautau_Region_BMin0_incJet1_distMETCent_J2_D_T2_SpcTauLH_Y2015_LTT0_L1_overallSyst_x_StatUncert'
p524
(lp525
F17.42525642994495
aI-1
asS'L_x_qqZHtautau_Region_BMin0_incJet1_distMETCent_J2_D_T2_SpcTauLH_Y2015_LTT0_L1_overallSyst_x_StatUncert'
p526
(lp527
F8.229700981365012
aI-1
asg20
(lp528
F5.9657706897762655
aI-1
asS'L_x_ggZHbb_Region_BMin0_incJet1_distMETCent_J2_D_T2_SpcTauLH_Y2015_LTT0_L1_overallSyst_x_StatUncert'
p529
(lp530
F5.668885263237917
aI-1
asS'L_x_WHbb_Region_BMin0_incJet1_distMETCent_J2_D_T2_SpcTauLH_Y2015_LTT0_L1_overallSyst_x_StatUncert'
p531
(lp532
F6.851029303688636
aI-1
asS'L_x_diboson_Region_BMin0_incJet1_distMETCent_J2_D_T2_SpcTauLH_Y2015_LTT0_L1_overallSyst_x_StatUncert'
p533
(lp534
F150.4166063991737
aI-1
asS'L_x_hhttbb_Region_BMin0_incJet1_distMETCent_J2_D_T2_SpcTauLH_Y2015_LTT0_L1_overallSyst_x_HistSyst'
p535
(lp536
F5.770310894929103
aI-1
asS'L_x_DYtt_Region_BMin0_incJet1_distMETCent_J2_D_T2_SpcTauLH_Y2015_LTT0_L1_overallSyst_x_StatUncert'
p537
(lp538
F2.3384524494172303
aI-1
asS'L_x_stop_Region_BMin0_incJet1_distMETCent_J2_D_T2_SpcTauLH_Y2015_LTT0_L1_overallSyst_x_StatUncert'
p539
(lp540
F3731.3807363931437
aI-1
asS'L_x_Zlf_Region_BMin0_incJet1_distMETCent_J2_D_T2_SpcTauLH_Y2015_LTT0_L1_overallSyst_x_StatUncert'
p541
(lp542
F83.01803381944114
aI-1
asg11
F98449.0
sS'L_x_ttbar_Region_BMin0_incJet1_distMETCent_J2_D_T2_SpcTauLH_Y2015_LTT0_L1_overallSyst_x_StatUncert'
p543
(lp544
F58485.94050921134
aI-1
asg44
(lp545
F98175.30360013826
aI-1
asS'L_x_ggZHtautau_Region_BMin0_incJet1_distMETCent_J2_D_T2_SpcTauLH_Y2015_LTT0_L1_overallSyst_x_StatUncert'
p546
(lp547
F2.8293385753534186
aI-1
asS'L_x_Zhf_Region_BMin0_incJet1_distMETCent_J2_D_T2_SpcTauLH_Y2015_LTT0_L1_overallSyst_x_StatUncert'
p548
(lp549
F926.1847829690163
aI-1
asS'L_x_W_Region_BMin0_incJet1_distMETCent_J2_D_T2_SpcTauLH_Y2015_LTT0_L1_overallSyst_x_StatUncert'
p550
(lp551
F72.85772549442073
aI-1
asS'L_x_DY_Region_BMin0_incJet1_distMETCent_J2_D_T2_SpcTauLH_Y2015_LTT0_L1_overallSyst_x_StatUncert'
p552
(lp553
F12.829214784688402
aI-1
assS'Region_BMin0_incJet1_distmMMC_J2_D_T2_SpcTauLH_Y2015_LTT0_L1'
p554
(dp555
S'L_x_Fake_Region_BMin0_incJet1_distmMMC_J2_D_T2_SpcTauLH_Y2015_LTT0_L1_overallSyst_x_StatUncert'
p556
(lp557
F32787.82688389934
aI-1
asg3
F6.080262543534415e-05
sS'L_x_ttbar_Region_BMin0_incJet1_distmMMC_J2_D_T2_SpcTauLH_Y2015_LTT0_L1_overallSyst_x_StatUncert'
p558
(lp559
F58466.594667233825
aI-1
asg4
F0.01904508728852195
sS'L_x_Zhf_Region_BMin0_incJet1_distmMMC_J2_D_T2_SpcTauLH_Y2015_LTT0_L1_overallSyst_x_StatUncert'
p560
(lp561
F925.3702303217074
aI-1
asS'L_x_qqZHtautau_Region_BMin0_incJet1_distmMMC_J2_D_T2_SpcTauLH_Y2015_LTT0_L1_overallSyst_x_StatUncert'
p562
(lp563
F8.229701461619582
aI-1
asg7
(lp564
F5.965818108606193
aF-1.0
asS'L_x_diboson_Region_BMin0_incJet1_distmMMC_J2_D_T2_SpcTauLH_Y2015_LTT0_L1_overallSyst_x_StatUncert'
p565
(lp566
F150.44609547671922
aI-1
asS'L_x_hhttbbVBFSM_Region_BMin0_incJet1_distmMMC_J2_D_T2_SpcTauLH_Y2015_LTT0_L1_overallSyst_x_HistSyst'
p567
(lp568
F0.1954527341393743
aI-1
asS'L_x_ggZHbb_Region_BMin0_incJet1_distmMMC_J2_D_T2_SpcTauLH_Y2015_LTT0_L1_overallSyst_x_StatUncert'
p569
(lp570
F5.6701457204137675
aI-1
asg30
(lp571
F98117.77149245111
aI-1
asS'L_x_ggFHtautau_Region_BMin0_incJet1_distmMMC_J2_D_T2_SpcTauLH_Y2015_LTT0_L1_overallSyst_x_StatUncert'
p572
(lp573
F17.424734757646906
aI-1
asS'L_x_Zlf_Region_BMin0_incJet1_distmMMC_J2_D_T2_SpcTauLH_Y2015_LTT0_L1_overallSyst_x_StatUncert'
p574
(lp575
F74.85283570270632
aI-1
asS'L_x_stop_Region_BMin0_incJet1_distmMMC_J2_D_T2_SpcTauLH_Y2015_LTT0_L1_overallSyst_x_StatUncert'
p576
(lp577
F3728.6885694925695
aI-1
asS'L_x_WHtautau_Region_BMin0_incJet1_distmMMC_J2_D_T2_SpcTauLH_Y2015_LTT0_L1_overallSyst_x_StatUncert'
p578
(lp579
F0.6521163205012177
aI-1
asS'L_x_DYtt_Region_BMin0_incJet1_distmMMC_J2_D_T2_SpcTauLH_Y2015_LTT0_L1_overallSyst_x_StatUncert'
p580
(lp581
F1.739446546324121
aI-1
asS'L_x_qqZHbb_Region_BMin0_incJet1_distmMMC_J2_D_T2_SpcTauLH_Y2015_LTT0_L1_overallSyst_x_StatUncert'
p582
(lp583
F17.353951451006292
aI-1
asS'L_x_WHbb_Region_BMin0_incJet1_distmMMC_J2_D_T2_SpcTauLH_Y2015_LTT0_L1_overallSyst_x_StatUncert'
p584
(lp585
F6.851333125855676
aI-1
asg20
(lp586
F5.965818108606193
aI-1
asS'L_x_Ztthf_Region_BMin0_incJet1_distmMMC_J2_D_T2_SpcTauLH_Y2015_LTT0_L1_overallSyst_x_StatUncert'
p587
(lp588
F1656.2508703733927
aI-1
asg11
F98411.0
sS'L_x_ttH_Region_BMin0_incJet1_distmMMC_J2_D_T2_SpcTauLH_Y2015_LTT0_L1_overallSyst_x_StatUncert'
p589
(lp590
F92.35520741213237
aI-1
asg44
(lp591
F98123.73731055974
aI-1
asS'L_x_W_Region_BMin0_incJet1_distmMMC_J2_D_T2_SpcTauLH_Y2015_LTT0_L1_overallSyst_x_StatUncert'
p592
(lp593
F72.5880078754404
aI-1
asS'L_x_DY_Region_BMin0_incJet1_distmMMC_J2_D_T2_SpcTauLH_Y2015_LTT0_L1_overallSyst_x_StatUncert'
p594
(lp595
F13.000625071501224
aI-1
asS'L_x_Wtt_Region_BMin0_incJet1_distmMMC_J2_D_T2_SpcTauLH_Y2015_LTT0_L1_overallSyst_x_StatUncert'
p596
(lp597
F5.0593769836131965
aI-1
asS'L_x_Zttlf_Region_BMin0_incJet1_distmMMC_J2_D_T2_SpcTauLH_Y2015_LTT0_L1_overallSyst_x_StatUncert'
p598
(lp599
F82.62470261678028
aI-1
asS'L_x_ggZHtautau_Region_BMin0_incJet1_distmMMC_J2_D_T2_SpcTauLH_Y2015_LTT0_L1_overallSyst_x_StatUncert'
p600
(lp601
F2.8325594135768064
aI-1
asS'L_x_hhttbb_Region_BMin0_incJet1_distmMMC_J2_D_T2_SpcTauLH_Y2015_LTT0_L1_overallSyst_x_HistSyst'
p602
(lp603
F5.770365374466818
aI-1
asS'L_x_VBFHtautau_Region_BMin0_incJet1_distmMMC_J2_D_T2_SpcTauLH_Y2015_LTT0_L1_overallSyst_x_StatUncert'
p604
(lp605
F1.3594311944322879
aI-1
assS'Region_BMin0_incJet1_distHt_J2_D_T2_SpcTauLH_Y2015_LTT1_L1'
p606
(dp607
g3
F0.00022405307776046776
sS'L_x_Zttlf_Region_BMin0_incJet1_distHt_J2_D_T2_SpcTauLH_Y2015_LTT1_L1_overallSyst_x_StatUncert'
p608
(lp609
F42.43601405129172
aI-1
asS'L_x_DY_Region_BMin0_incJet1_distHt_J2_D_T2_SpcTauLH_Y2015_LTT1_L1_overallSyst_x_StatUncert'
p610
(lp611
F0.6079264235660384
aI-1
asg4
F0.017843007167289086
sS'L_x_Ztthf_Region_BMin0_incJet1_distHt_J2_D_T2_SpcTauLH_Y2015_LTT1_L1_overallSyst_x_StatUncert'
p612
(lp613
F531.9231537077525
aI-1
asg7
(lp614
F1.4212892783448576
aF-1.0
asS'L_x_ttH_Region_BMin0_incJet1_distHt_J2_D_T2_SpcTauLH_Y2015_LTT1_L1_overallSyst_x_StatUncert'
p615
(lp616
F10.371684144665052
aI-1
asg30
(lp617
F6343.538292584133
aI-1
asS'L_x_VBFHtautau_Region_BMin0_incJet1_distHt_J2_D_T2_SpcTauLH_Y2015_LTT1_L1_overallSyst_x_StatUncert'
p618
(lp619
F0.3470081510513505
aI-1
asS'L_x_ggZHtautau_Region_BMin0_incJet1_distHt_J2_D_T2_SpcTauLH_Y2015_LTT1_L1_overallSyst_x_StatUncert'
p620
(lp621
F0.7196562707791674
aI-1
asS'L_x_hhttbb_Region_BMin0_incJet1_distHt_J2_D_T2_SpcTauLH_Y2015_LTT1_L1_overallSyst_x_HistSyst'
p622
(lp623
F1.3690763912208856
aI-1
asS'L_x_W_Region_BMin0_incJet1_distHt_J2_D_T2_SpcTauLH_Y2015_LTT1_L1_overallSyst_x_StatUncert'
p624
(lp625
F1.2527212548671371
aI-1
asS'L_x_Fake_Region_BMin0_incJet1_distHt_J2_D_T2_SpcTauLH_Y2015_LTT1_L1_overallSyst_x_StatUncert'
p626
(lp627
F1528.2147917882817
aI-1
asS'L_x_Wtt_Region_BMin0_incJet1_distHt_J2_D_T2_SpcTauLH_Y2015_LTT1_L1_overallSyst_x_StatUncert'
p628
(lp629
F2.43025659822407
aI-1
asS'L_x_qqZHtautau_Region_BMin0_incJet1_distHt_J2_D_T2_SpcTauLH_Y2015_LTT1_L1_overallSyst_x_StatUncert'
p630
(lp631
F2.0782794480248645
aI-1
asS'L_x_hhttbbVBFSM_Region_BMin0_incJet1_distHt_J2_D_T2_SpcTauLH_Y2015_LTT1_L1_overallSyst_x_HistSyst'
p632
(lp633
F0.05221288712397181
aI-1
asS'L_x_DYtt_Region_BMin0_incJet1_distHt_J2_D_T2_SpcTauLH_Y2015_LTT1_L1_overallSyst_x_StatUncert'
p634
(lp635
F0.2539031831394155
aI-1
asg20
(lp636
F1.4212892783448576
aI-1
asS'L_x_WHtautau_Region_BMin0_incJet1_distHt_J2_D_T2_SpcTauLH_Y2015_LTT1_L1_overallSyst_x_StatUncert'
p637
(lp638
F0.15494378733697484
aI-1
asS'L_x_WHbb_Region_BMin0_incJet1_distHt_J2_D_T2_SpcTauLH_Y2015_LTT1_L1_overallSyst_x_StatUncert'
p639
(lp640
F0.16358502414271378
aI-1
asS'L_x_ttbar_Region_BMin0_incJet1_distHt_J2_D_T2_SpcTauLH_Y2015_LTT1_L1_overallSyst_x_StatUncert'
p641
(lp642
F3938.100141062678
aI-1
asS'L_x_Zhf_Region_BMin0_incJet1_distHt_J2_D_T2_SpcTauLH_Y2015_LTT1_L1_overallSyst_x_StatUncert'
p643
(lp644
F51.197683054484415
aI-1
asS'L_x_stop_Region_BMin0_incJet1_distHt_J2_D_T2_SpcTauLH_Y2015_LTT1_L1_overallSyst_x_StatUncert'
p645
(lp646
F201.4472520591449
aI-1
asS'L_x_ggFHtautau_Region_BMin0_incJet1_distHt_J2_D_T2_SpcTauLH_Y2015_LTT1_L1_overallSyst_x_StatUncert'
p647
(lp648
F4.603244689587434
aI-1
asS'L_x_Zlf_Region_BMin0_incJet1_distHt_J2_D_T2_SpcTauLH_Y2015_LTT1_L1_overallSyst_x_StatUncert'
p649
(lp650
F2.5300403026104488
aI-1
asS'L_x_qqZHbb_Region_BMin0_incJet1_distHt_J2_D_T2_SpcTauLH_Y2015_LTT1_L1_overallSyst_x_StatUncert'
p651
(lp652
F3.7039033969478914
aI-1
asg11
F6323.0
sg44
(lp653
F6344.959581862478
aI-1
asS'L_x_ggZHbb_Region_BMin0_incJet1_distHt_J2_D_T2_SpcTauLH_Y2015_LTT1_L1_overallSyst_x_StatUncert'
p654
(lp655
F1.4087770277236444
aI-1
asS'L_x_diboson_Region_BMin0_incJet1_distHt_J2_D_T2_SpcTauLH_Y2015_LTT1_L1_overallSyst_x_StatUncert'
p656
(lp657
F19.593327157832544
aI-1
assS'Region_BMin0_incJet1_distMhh_J2_D_T2_SpcTauLH_Y2015_LTT0_L1'
p658
(dp659
g3
F6.075457779401677e-05
sS'L_x_DYtt_Region_BMin0_incJet1_distMhh_J2_D_T2_SpcTauLH_Y2015_LTT0_L1_overallSyst_x_StatUncert'
p660
(lp661
F1.6970272818665977
aI-1
asS'L_x_diboson_Region_BMin0_incJet1_distMhh_J2_D_T2_SpcTauLH_Y2015_LTT0_L1_overallSyst_x_StatUncert'
p662
(lp663
F150.1043375017444
aI-1
asS'L_x_Fake_Region_BMin0_incJet1_distMhh_J2_D_T2_SpcTauLH_Y2015_LTT0_L1_overallSyst_x_StatUncert'
p664
(lp665
F32780.72740980301
aI-1
asg4
F0.019030059277153878
sg7
(lp666
F5.961117188147202
aF-1.0
asS'L_x_WHbb_Region_BMin0_incJet1_distMhh_J2_D_T2_SpcTauLH_Y2015_LTT0_L1_overallSyst_x_StatUncert'
p667
(lp668
F6.850342011007089
aI-1
asS'L_x_hhttbb_Region_BMin0_incJet1_distMhh_J2_D_T2_SpcTauLH_Y2015_LTT0_L1_overallSyst_x_HistSyst'
p669
(lp670
F5.767014645983296
aI-1
asg30
(lp671
F98117.992167732
aI-1
asS'L_x_Zlf_Region_BMin0_incJet1_distMhh_J2_D_T2_SpcTauLH_Y2015_LTT0_L1_overallSyst_x_StatUncert'
p672
(lp673
F75.0419495590257
aI-1
asS'L_x_stop_Region_BMin0_incJet1_distMhh_J2_D_T2_SpcTauLH_Y2015_LTT0_L1_overallSyst_x_StatUncert'
p674
(lp675
F3731.2826904505678
aI-1
asS'L_x_Zhf_Region_BMin0_incJet1_distMhh_J2_D_T2_SpcTauLH_Y2015_LTT0_L1_overallSyst_x_StatUncert'
p676
(lp677
F920.0698746602415
aI-1
asS'L_x_ggZHtautau_Region_BMin0_incJet1_distMhh_J2_D_T2_SpcTauLH_Y2015_LTT0_L1_overallSyst_x_StatUncert'
p678
(lp679
F2.8294705183834585
aI-1
asS'L_x_ttH_Region_BMin0_incJet1_distMhh_J2_D_T2_SpcTauLH_Y2015_LTT0_L1_overallSyst_x_StatUncert'
p680
(lp681
F92.4285324140234
aI-1
asS'L_x_qqZHbb_Region_BMin0_incJet1_distMhh_J2_D_T2_SpcTauLH_Y2015_LTT0_L1_overallSyst_x_StatUncert'
p682
(lp683
F17.33804150346456
aI-1
asS'L_x_VBFHtautau_Region_BMin0_incJet1_distMhh_J2_D_T2_SpcTauLH_Y2015_LTT0_L1_overallSyst_x_StatUncert'
p684
(lp685
F1.3347147183813886
aI-1
asS'L_x_W_Region_BMin0_incJet1_distMhh_J2_D_T2_SpcTauLH_Y2015_LTT0_L1_overallSyst_x_StatUncert'
p686
(lp687
F72.7395657091402
aI-1
asg20
(lp688
F5.961117188147202
aI-1
asS'L_x_Wtt_Region_BMin0_incJet1_distMhh_J2_D_T2_SpcTauLH_Y2015_LTT0_L1_overallSyst_x_StatUncert'
p689
(lp690
F4.968490848300573
aI-1
asS'L_x_DY_Region_BMin0_incJet1_distMhh_J2_D_T2_SpcTauLH_Y2015_LTT0_L1_overallSyst_x_StatUncert'
p691
(lp692
F12.89195480326216
aI-1
asS'L_x_qqZHtautau_Region_BMin0_incJet1_distMhh_J2_D_T2_SpcTauLH_Y2015_LTT0_L1_overallSyst_x_StatUncert'
p693
(lp694
F8.226361380262029
aI-1
asS'L_x_hhttbbVBFSM_Region_BMin0_incJet1_distMhh_J2_D_T2_SpcTauLH_Y2015_LTT0_L1_overallSyst_x_HistSyst'
p695
(lp696
F0.19410254216390554
aI-1
asg11
F98412.0
sS'L_x_ggZHbb_Region_BMin0_incJet1_distMhh_J2_D_T2_SpcTauLH_Y2015_LTT0_L1_overallSyst_x_StatUncert'
p697
(lp698
F5.666893854384848
aI-1
asS'L_x_WHtautau_Region_BMin0_incJet1_distMhh_J2_D_T2_SpcTauLH_Y2015_LTT0_L1_overallSyst_x_StatUncert'
p699
(lp700
F0.6517156541025227
aI-1
asS'L_x_ggFHtautau_Region_BMin0_incJet1_distMhh_J2_D_T2_SpcTauLH_Y2015_LTT0_L1_overallSyst_x_StatUncert'
p701
(lp702
F17.25516885682421
aI-1
asS'L_x_Zttlf_Region_BMin0_incJet1_distMhh_J2_D_T2_SpcTauLH_Y2015_LTT0_L1_overallSyst_x_StatUncert'
p703
(lp704
F87.66476251466278
aI-1
asg44
(lp705
F98123.95328492014
aI-1
asS'L_x_ttbar_Region_BMin0_incJet1_distMhh_J2_D_T2_SpcTauLH_Y2015_LTT0_L1_overallSyst_x_StatUncert'
p706
(lp707
F58484.85951794548
aI-1
asS'L_x_Ztthf_Region_BMin0_incJet1_distMhh_J2_D_T2_SpcTauLH_Y2015_LTT0_L1_overallSyst_x_StatUncert'
p708
(lp709
F1643.363345743851
aI-1
assS'Region_BMin0_incJet1_distDRTauTau_J2_D_T2_SpcTauLH_Y2015_LTT0_L1'
p710
(dp711
g3
F6.0795957335576565e-05
sS'L_x_ggFHtautau_Region_BMin0_incJet1_distDRTauTau_J2_D_T2_SpcTauLH_Y2015_LTT0_L1_overallSyst_x_StatUncert'
p712
(lp713
F17.425256528944555
aI-1
asS'L_x_ggZHbb_Region_BMin0_incJet1_distDRTauTau_J2_D_T2_SpcTauLH_Y2015_LTT0_L1_overallSyst_x_StatUncert'
p714
(lp715
F5.670207574787258
aI-1
asS'L_x_DYtt_Region_BMin0_incJet1_distDRTauTau_J2_D_T2_SpcTauLH_Y2015_LTT0_L1_overallSyst_x_StatUncert'
p716
(lp717
F1.697027888639616
aI-1
asS'L_x_hhttbb_Region_BMin0_incJet1_distDRTauTau_J2_D_T2_SpcTauLH_Y2015_LTT0_L1_overallSyst_x_HistSyst'
p718
(lp719
F5.770213283778225
aI-1
asS'L_x_qqZHtautau_Region_BMin0_incJet1_distDRTauTau_J2_D_T2_SpcTauLH_Y2015_LTT0_L1_overallSyst_x_StatUncert'
p720
(lp721
F8.229701255452673
aI-1
asS'L_x_WHtautau_Region_BMin0_incJet1_distDRTauTau_J2_D_T2_SpcTauLH_Y2015_LTT0_L1_overallSyst_x_StatUncert'
p722
(lp723
F0.6528153563325648
aI-1
asS'L_x_ttH_Region_BMin0_incJet1_distDRTauTau_J2_D_T2_SpcTauLH_Y2015_LTT0_L1_overallSyst_x_StatUncert'
p724
(lp725
F92.43268877441345
aI-1
asg7
(lp726
F5.965674862609684
aF-1.0
asS'L_x_diboson_Region_BMin0_incJet1_distDRTauTau_J2_D_T2_SpcTauLH_Y2015_LTT0_L1_overallSyst_x_StatUncert'
p727
(lp728
F150.2309136518128
aI-1
asg30
(lp729
F98126.17687193966
aI-1
asS'L_x_Zttlf_Region_BMin0_incJet1_distDRTauTau_J2_D_T2_SpcTauLH_Y2015_LTT0_L1_overallSyst_x_StatUncert'
p730
(lp731
F87.96269671611324
aI-1
asS'L_x_Zhf_Region_BMin0_incJet1_distDRTauTau_J2_D_T2_SpcTauLH_Y2015_LTT0_L1_overallSyst_x_StatUncert'
p732
(lp733
F926.3202084823541
aI-1
asS'L_x_ggZHtautau_Region_BMin0_incJet1_distDRTauTau_J2_D_T2_SpcTauLH_Y2015_LTT0_L1_overallSyst_x_StatUncert'
p734
(lp735
F2.8294719707643727
aI-1
asS'L_x_DY_Region_BMin0_incJet1_distDRTauTau_J2_D_T2_SpcTauLH_Y2015_LTT0_L1_overallSyst_x_StatUncert'
p736
(lp737
F13.102529743268015
aI-1
asS'L_x_VBFHtautau_Region_BMin0_incJet1_distDRTauTau_J2_D_T2_SpcTauLH_Y2015_LTT0_L1_overallSyst_x_StatUncert'
p738
(lp739
F1.3593814691537336
aI-1
asg20
(lp740
F5.965674862609684
aI-1
asS'L_x_hhttbbVBFSM_Region_BMin0_incJet1_distDRTauTau_J2_D_T2_SpcTauLH_Y2015_LTT0_L1_overallSyst_x_HistSyst'
p741
(lp742
F0.19546157883145934
aI-1
asg4
F0.019043814369654074
sS'L_x_WHbb_Region_BMin0_incJet1_distDRTauTau_J2_D_T2_SpcTauLH_Y2015_LTT0_L1_overallSyst_x_StatUncert'
p743
(lp744
F6.83168411192662
aI-1
asg11
F98413.0
sS'L_x_Wtt_Region_BMin0_incJet1_distDRTauTau_J2_D_T2_SpcTauLH_Y2015_LTT0_L1_overallSyst_x_StatUncert'
p745
(lp746
F4.987982490608392
aI-1
asS'L_x_W_Region_BMin0_incJet1_distDRTauTau_J2_D_T2_SpcTauLH_Y2015_LTT0_L1_overallSyst_x_StatUncert'
p747
(lp748
F72.72334024576121
aI-1
asS'L_x_Zlf_Region_BMin0_incJet1_distDRTauTau_J2_D_T2_SpcTauLH_Y2015_LTT0_L1_overallSyst_x_StatUncert'
p749
(lp750
F75.04093894642905
aI-1
asg44
(lp751
F98132.14254680226
aI-1
asS'L_x_stop_Region_BMin0_incJet1_distDRTauTau_J2_D_T2_SpcTauLH_Y2015_LTT0_L1_overallSyst_x_StatUncert'
p752
(lp753
F3729.024703059873
aI-1
asS'L_x_qqZHbb_Region_BMin0_incJet1_distDRTauTau_J2_D_T2_SpcTauLH_Y2015_LTT0_L1_overallSyst_x_StatUncert'
p754
(lp755
F17.3540109385526
aI-1
asS'L_x_Ztthf_Region_BMin0_incJet1_distDRTauTau_J2_D_T2_SpcTauLH_Y2015_LTT0_L1_overallSyst_x_StatUncert'
p756
(lp757
F1662.2170455668868
aI-1
asS'L_x_Fake_Region_BMin0_incJet1_distDRTauTau_J2_D_T2_SpcTauLH_Y2015_LTT0_L1_overallSyst_x_StatUncert'
p758
(lp759
F32769.496629378475
aI-1
asS'L_x_ttbar_Region_BMin0_incJet1_distDRTauTau_J2_D_T2_SpcTauLH_Y2015_LTT0_L1_overallSyst_x_StatUncert'
p760
(lp761
F58480.58763778911
aI-1
assS'Region_BMin0_incJet1_distMET_J2_D_T2_SpcTauLH_Y2015_LTT0_L1'
p762
(dp763
S'L_x_DY_Region_BMin0_incJet1_distMET_J2_D_T2_SpcTauLH_Y2015_LTT0_L1_overallSyst_x_StatUncert'
p764
(lp765
F12.890095326610556
aI-1
asg3
F6.078613792849598e-05
sS'L_x_stop_Region_BMin0_incJet1_distMET_J2_D_T2_SpcTauLH_Y2015_LTT0_L1_overallSyst_x_StatUncert'
p766
(lp767
F3730.2224774937004
aI-1
asS'L_x_Zlf_Region_BMin0_incJet1_distMET_J2_D_T2_SpcTauLH_Y2015_LTT0_L1_overallSyst_x_StatUncert'
p768
(lp769
F73.74429242114684
aI-1
asS'L_x_Zhf_Region_BMin0_incJet1_distMET_J2_D_T2_SpcTauLH_Y2015_LTT0_L1_overallSyst_x_StatUncert'
p770
(lp771
F921.0584286667429
aI-1
asg4
F0.019041339345433103
sS'L_x_WHtautau_Region_BMin0_incJet1_distMET_J2_D_T2_SpcTauLH_Y2015_LTT0_L1_overallSyst_x_StatUncert'
p772
(lp773
F0.6527434545729286
aI-1
asS'L_x_hhttbb_Region_BMin0_incJet1_distMET_J2_D_T2_SpcTauLH_Y2015_LTT0_L1_overallSyst_x_HistSyst'
p774
(lp775
F5.7697199266825185
aI-1
asS'L_x_DYtt_Region_BMin0_incJet1_distMET_J2_D_T2_SpcTauLH_Y2015_LTT0_L1_overallSyst_x_StatUncert'
p776
(lp777
F1.6718676720576948
aI-1
asS'L_x_Wtt_Region_BMin0_incJet1_distMET_J2_D_T2_SpcTauLH_Y2015_LTT0_L1_overallSyst_x_StatUncert'
p778
(lp779
F4.983438213854578
aI-1
asg7
(lp780
F5.965087696191301
aF-1.0
asS'L_x_W_Region_BMin0_incJet1_distMET_J2_D_T2_SpcTauLH_Y2015_LTT0_L1_overallSyst_x_StatUncert'
p781
(lp782
F72.9002283731621
aI-1
asS'L_x_hhttbbVBFSM_Region_BMin0_incJet1_distMET_J2_D_T2_SpcTauLH_Y2015_LTT0_L1_overallSyst_x_HistSyst'
p783
(lp784
F0.1953677695087826
aI-1
asS'L_x_ggFHtautau_Region_BMin0_incJet1_distMET_J2_D_T2_SpcTauLH_Y2015_LTT0_L1_overallSyst_x_StatUncert'
p785
(lp786
F17.42501219803003
aI-1
asg30
(lp787
F98132.36865300045
aI-1
asS'L_x_Fake_Region_BMin0_incJet1_distMET_J2_D_T2_SpcTauLH_Y2015_LTT0_L1_overallSyst_x_StatUncert'
p788
(lp789
F32793.473140307484
aI-1
asS'L_x_ggZHtautau_Region_BMin0_incJet1_distMET_J2_D_T2_SpcTauLH_Y2015_LTT0_L1_overallSyst_x_StatUncert'
p790
(lp791
F2.8295585997130424
aI-1
asS'L_x_ttH_Region_BMin0_incJet1_distMET_J2_D_T2_SpcTauLH_Y2015_LTT0_L1_overallSyst_x_StatUncert'
p792
(lp793
F92.41311719524892
aI-1
asS'L_x_ttbar_Region_BMin0_incJet1_distMET_J2_D_T2_SpcTauLH_Y2015_LTT0_L1_overallSyst_x_StatUncert'
p794
(lp795
F58480.39737946275
aI-1
asS'L_x_Ztthf_Region_BMin0_incJet1_distMET_J2_D_T2_SpcTauLH_Y2015_LTT0_L1_overallSyst_x_StatUncert'
p796
(lp797
F1654.0961011100783
aI-1
asS'L_x_diboson_Region_BMin0_incJet1_distMET_J2_D_T2_SpcTauLH_Y2015_LTT0_L1_overallSyst_x_StatUncert'
p798
(lp799
F150.38669679178733
aI-1
asS'L_x_qqZHtautau_Region_BMin0_incJet1_distMET_J2_D_T2_SpcTauLH_Y2015_LTT0_L1_overallSyst_x_StatUncert'
p800
(lp801
F8.229701396907513
aI-1
asS'L_x_Zttlf_Region_BMin0_incJet1_distMET_J2_D_T2_SpcTauLH_Y2015_LTT0_L1_overallSyst_x_StatUncert'
p802
(lp803
F83.76188968617524
aI-1
asg20
(lp804
F5.965087696191301
aI-1
asg11
F98444.0
sg44
(lp805
F98138.33374069663
aI-1
asS'L_x_WHbb_Region_BMin0_incJet1_distMET_J2_D_T2_SpcTauLH_Y2015_LTT0_L1_overallSyst_x_StatUncert'
p806
(lp807
F6.849296818692327
aI-1
asS'L_x_ggZHbb_Region_BMin0_incJet1_distMET_J2_D_T2_SpcTauLH_Y2015_LTT0_L1_overallSyst_x_StatUncert'
p808
(lp809
F5.67020804413146
aI-1
asS'L_x_VBFHtautau_Region_BMin0_incJet1_distMET_J2_D_T2_SpcTauLH_Y2015_LTT0_L1_overallSyst_x_StatUncert'
p810
(lp811
F1.3592455086620556
aI-1
asS'L_x_qqZHbb_Region_BMin0_incJet1_distMET_J2_D_T2_SpcTauLH_Y2015_LTT0_L1_overallSyst_x_StatUncert'
p812
(lp813
F17.353734258926732
aI-1
assS'Region_BMin0_incJet1_distDRTauTau_J2_D_T2_SpcTauLH_Y2015_LTT1_L1'
p814
(dp815
S'L_x_Zlf_Region_BMin0_incJet1_distDRTauTau_J2_D_T2_SpcTauLH_Y2015_LTT1_L1_overallSyst_x_StatUncert'
p816
(lp817
F2.1697627732571894
aI-1
asS'L_x_stop_Region_BMin0_incJet1_distDRTauTau_J2_D_T2_SpcTauLH_Y2015_LTT1_L1_overallSyst_x_StatUncert'
p818
(lp819
F202.97878638227095
aI-1
asg3
F0.0002249182635027578
sS'L_x_hhttbb_Region_BMin0_incJet1_distDRTauTau_J2_D_T2_SpcTauLH_Y2015_LTT1_L1_overallSyst_x_HistSyst'
p820
(lp821
F1.3827314225680036
aI-1
asS'L_x_Wtt_Region_BMin0_incJet1_distDRTauTau_J2_D_T2_SpcTauLH_Y2015_LTT1_L1_overallSyst_x_StatUncert'
p822
(lp823
F2.482186662595614
aI-1
asS'L_x_Zhf_Region_BMin0_incJet1_distDRTauTau_J2_D_T2_SpcTauLH_Y2015_LTT1_L1_overallSyst_x_StatUncert'
p824
(lp825
F52.66172257022955
aI-1
asg4
F0.01796871330563634
sS'L_x_diboson_Region_BMin0_incJet1_distDRTauTau_J2_D_T2_SpcTauLH_Y2015_LTT1_L1_overallSyst_x_StatUncert'
p826
(lp827
F19.951134309512568
aI-1
asg7
(lp828
F1.4358428401416483
aF-1.0
asS'L_x_qqZHtautau_Region_BMin0_incJet1_distDRTauTau_J2_D_T2_SpcTauLH_Y2015_LTT1_L1_overallSyst_x_StatUncert'
p829
(lp830
F2.1007043168421986
aI-1
asS'L_x_WHtautau_Region_BMin0_incJet1_distDRTauTau_J2_D_T2_SpcTauLH_Y2015_LTT1_L1_overallSyst_x_StatUncert'
p831
(lp832
F0.16191891646580772
aI-1
asS'L_x_DY_Region_BMin0_incJet1_distDRTauTau_J2_D_T2_SpcTauLH_Y2015_LTT1_L1_overallSyst_x_StatUncert'
p833
(lp834
F0.5960781222076794
aI-1
asg30
(lp835
F6383.842813743059
aI-1
asS'L_x_ttbar_Region_BMin0_incJet1_distDRTauTau_J2_D_T2_SpcTauLH_Y2015_LTT1_L1_overallSyst_x_StatUncert'
p836
(lp837
F3967.0327365285634
aI-1
asS'L_x_DYtt_Region_BMin0_incJet1_distDRTauTau_J2_D_T2_SpcTauLH_Y2015_LTT1_L1_overallSyst_x_StatUncert'
p838
(lp839
F0.2539031760035598
aI-1
asS'L_x_W_Region_BMin0_incJet1_distDRTauTau_J2_D_T2_SpcTauLH_Y2015_LTT1_L1_overallSyst_x_StatUncert'
p840
(lp841
F1.2588079466917679
aI-1
asS'L_x_Fake_Region_BMin0_incJet1_distDRTauTau_J2_D_T2_SpcTauLH_Y2015_LTT1_L1_overallSyst_x_StatUncert'
p842
(lp843
F1529.6745670128107
aI-1
asS'L_x_hhttbbVBFSM_Region_BMin0_incJet1_distDRTauTau_J2_D_T2_SpcTauLH_Y2015_LTT1_L1_overallSyst_x_HistSyst'
p844
(lp845
F0.053111417573644785
aI-1
asS'L_x_ggZHtautau_Region_BMin0_incJet1_distDRTauTau_J2_D_T2_SpcTauLH_Y2015_LTT1_L1_overallSyst_x_StatUncert'
p846
(lp847
F0.723426882165808
aI-1
asS'L_x_Zttlf_Region_BMin0_incJet1_distDRTauTau_J2_D_T2_SpcTauLH_Y2015_LTT1_L1_overallSyst_x_StatUncert'
p848
(lp849
F42.82987982039096
aI-1
asg20
(lp850
F1.4358428401416483
aI-1
asS'L_x_qqZHbb_Region_BMin0_incJet1_distDRTauTau_J2_D_T2_SpcTauLH_Y2015_LTT1_L1_overallSyst_x_StatUncert'
p851
(lp852
F3.7293100070406546
aI-1
asS'L_x_Ztthf_Region_BMin0_incJet1_distDRTauTau_J2_D_T2_SpcTauLH_Y2015_LTT1_L1_overallSyst_x_StatUncert'
p853
(lp854
F537.8919061924917
aI-1
asS'L_x_VBFHtautau_Region_BMin0_incJet1_distDRTauTau_J2_D_T2_SpcTauLH_Y2015_LTT1_L1_overallSyst_x_StatUncert'
p855
(lp856
F0.34711730973178573
aI-1
asS'L_x_WHbb_Region_BMin0_incJet1_distDRTauTau_J2_D_T2_SpcTauLH_Y2015_LTT1_L1_overallSyst_x_StatUncert'
p857
(lp858
F0.16302464048554194
aI-1
asg11
F6344.0
sS'L_x_ggFHtautau_Region_BMin0_incJet1_distDRTauTau_J2_D_T2_SpcTauLH_Y2015_LTT1_L1_overallSyst_x_StatUncert'
p859
(lp860
F4.61972053382316
aI-1
asg44
(lp861
F6385.278656583201
aI-1
asS'L_x_ggZHbb_Region_BMin0_incJet1_distDRTauTau_J2_D_T2_SpcTauLH_Y2015_LTT1_L1_overallSyst_x_StatUncert'
p862
(lp863
F1.4142994130609194
aI-1
asS'L_x_ttH_Region_BMin0_incJet1_distDRTauTau_J2_D_T2_SpcTauLH_Y2015_LTT1_L1_overallSyst_x_StatUncert'
p864
(lp865
F10.801820226416883
aI-1
assS'Region_BMin0_incJet1_distdPtLepTau_J2_D_T2_SpcTauLH_Y2015_LTT0_L1'
p866
(dp867
g3
F6.050526177032882e-05
sg4
F0.018948525285470506
sS'L_x_VBFHtautau_Region_BMin0_incJet1_distdPtLepTau_J2_D_T2_SpcTauLH_Y2015_LTT0_L1_overallSyst_x_StatUncert'
p868
(lp869
F1.3542788663388432
aI-1
asS'L_x_WHtautau_Region_BMin0_incJet1_distdPtLepTau_J2_D_T2_SpcTauLH_Y2015_LTT0_L1_overallSyst_x_StatUncert'
p870
(lp871
F0.6528153858514961
aI-1
asg7
(lp872
F5.934497665116364
aF-1.0
asS'L_x_DY_Region_BMin0_incJet1_distdPtLepTau_J2_D_T2_SpcTauLH_Y2015_LTT0_L1_overallSyst_x_StatUncert'
p873
(lp874
F12.893783676034506
aI-1
asg30
(lp875
F98082.34013833459
aI-1
asS'L_x_Zhf_Region_BMin0_incJet1_distdPtLepTau_J2_D_T2_SpcTauLH_Y2015_LTT0_L1_overallSyst_x_StatUncert'
p876
(lp877
F919.7191612353878
aI-1
asS'L_x_ttbar_Region_BMin0_incJet1_distdPtLepTau_J2_D_T2_SpcTauLH_Y2015_LTT0_L1_overallSyst_x_StatUncert'
p878
(lp879
F58458.75745673411
aI-1
asS'L_x_Zlf_Region_BMin0_incJet1_distdPtLepTau_J2_D_T2_SpcTauLH_Y2015_LTT0_L1_overallSyst_x_StatUncert'
p880
(lp881
F76.54068108515801
aI-1
asS'L_x_stop_Region_BMin0_incJet1_distdPtLepTau_J2_D_T2_SpcTauLH_Y2015_LTT0_L1_overallSyst_x_StatUncert'
p882
(lp883
F3721.237496228641
aI-1
asS'L_x_ggZHbb_Region_BMin0_incJet1_distdPtLepTau_J2_D_T2_SpcTauLH_Y2015_LTT0_L1_overallSyst_x_StatUncert'
p884
(lp885
F5.660752901041682
aI-1
asS'L_x_ggFHtautau_Region_BMin0_incJet1_distdPtLepTau_J2_D_T2_SpcTauLH_Y2015_LTT0_L1_overallSyst_x_StatUncert'
p886
(lp887
F17.353373018386314
aI-1
asS'L_x_ggZHtautau_Region_BMin0_incJet1_distdPtLepTau_J2_D_T2_SpcTauLH_Y2015_LTT0_L1_overallSyst_x_StatUncert'
p888
(lp889
F2.8220191035575977
aI-1
asS'L_x_DYtt_Region_BMin0_incJet1_distdPtLepTau_J2_D_T2_SpcTauLH_Y2015_LTT0_L1_overallSyst_x_StatUncert'
p890
(lp891
F1.570860034593799
aI-1
asg20
(lp892
F5.934497665116364
aI-1
asS'L_x_W_Region_BMin0_incJet1_distdPtLepTau_J2_D_T2_SpcTauLH_Y2015_LTT0_L1_overallSyst_x_StatUncert'
p893
(lp894
F72.73787372725454
aI-1
asS'L_x_hhttbbVBFSM_Region_BMin0_incJet1_distdPtLepTau_J2_D_T2_SpcTauLH_Y2015_LTT0_L1_overallSyst_x_HistSyst'
p895
(lp896
F0.19451371641872456
aI-1
asS'L_x_Wtt_Region_BMin0_incJet1_distdPtLepTau_J2_D_T2_SpcTauLH_Y2015_LTT0_L1_overallSyst_x_StatUncert'
p897
(lp898
F4.909451858709918
aI-1
asS'L_x_WHbb_Region_BMin0_incJet1_distdPtLepTau_J2_D_T2_SpcTauLH_Y2015_LTT0_L1_overallSyst_x_StatUncert'
p899
(lp900
F6.813714324787043
aI-1
asS'L_x_qqZHbb_Region_BMin0_incJet1_distdPtLepTau_J2_D_T2_SpcTauLH_Y2015_LTT0_L1_overallSyst_x_StatUncert'
p901
(lp902
F17.298065716181622
aI-1
asS'L_x_Fake_Region_BMin0_incJet1_distdPtLepTau_J2_D_T2_SpcTauLH_Y2015_LTT0_L1_overallSyst_x_StatUncert'
p903
(lp904
F32778.89077158142
aI-1
asg11
F98399.0
sS'L_x_hhttbb_Region_BMin0_incJet1_distdPtLepTau_J2_D_T2_SpcTauLH_Y2015_LTT0_L1_overallSyst_x_HistSyst'
p905
(lp906
F5.739983948697639
aI-1
asS'L_x_Ztthf_Region_BMin0_incJet1_distdPtLepTau_J2_D_T2_SpcTauLH_Y2015_LTT0_L1_overallSyst_x_StatUncert'
p907
(lp908
F1651.3611649542186
aI-1
asS'L_x_qqZHtautau_Region_BMin0_incJet1_distdPtLepTau_J2_D_T2_SpcTauLH_Y2015_LTT0_L1_overallSyst_x_StatUncert'
p909
(lp910
F8.193586571853071
aI-1
asg44
(lp911
F98088.2746359997
aI-1
asS'L_x_diboson_Region_BMin0_incJet1_distdPtLepTau_J2_D_T2_SpcTauLH_Y2015_LTT0_L1_overallSyst_x_StatUncert'
p912
(lp913
F149.7765753216879
aI-1
asS'L_x_Zttlf_Region_BMin0_incJet1_distdPtLepTau_J2_D_T2_SpcTauLH_Y2015_LTT0_L1_overallSyst_x_StatUncert'
p914
(lp915
F81.65138066531381
aI-1
asS'L_x_ttH_Region_BMin0_incJet1_distdPtLepTau_J2_D_T2_SpcTauLH_Y2015_LTT0_L1_overallSyst_x_StatUncert'
p916
(lp917
F92.1448753440572
aI-1
assS'Region_BMin0_incJet1_distpTB2_J2_D_T2_SpcTauLH_Y2015_LTT0_L1'
p918
(dp919
g3
F6.079250424714425e-05
sS'L_x_Fake_Region_BMin0_incJet1_distpTB2_J2_D_T2_SpcTauLH_Y2015_LTT0_L1_overallSyst_x_StatUncert'
p920
(lp921
F32794.196915413915
aI-1
asS'L_x_DY_Region_BMin0_incJet1_distpTB2_J2_D_T2_SpcTauLH_Y2015_LTT0_L1_overallSyst_x_StatUncert'
p922
(lp923
F12.879904850814206
aI-1
asS'L_x_diboson_Region_BMin0_incJet1_distpTB2_J2_D_T2_SpcTauLH_Y2015_LTT0_L1_overallSyst_x_StatUncert'
p924
(lp925
F150.49819359602907
aI-1
asg7
(lp926
F5.9658280885211115
aF-1.0
asg4
F0.01904351812738661
sg30
(lp927
F98134.27103229356
aI-1
asS'L_x_WHbb_Region_BMin0_incJet1_distpTB2_J2_D_T2_SpcTauLH_Y2015_LTT0_L1_overallSyst_x_StatUncert'
p928
(lp929
F6.8510284721356385
aI-1
asS'L_x_ttbar_Region_BMin0_incJet1_distpTB2_J2_D_T2_SpcTauLH_Y2015_LTT0_L1_overallSyst_x_StatUncert'
p930
(lp931
F58485.9726791524
aI-1
asS'L_x_stop_Region_BMin0_incJet1_distpTB2_J2_D_T2_SpcTauLH_Y2015_LTT0_L1_overallSyst_x_StatUncert'
p932
(lp933
F3731.391768800719
aI-1
asS'L_x_Zlf_Region_BMin0_incJet1_distpTB2_J2_D_T2_SpcTauLH_Y2015_LTT0_L1_overallSyst_x_StatUncert'
p934
(lp935
F72.84405072965016
aI-1
asS'L_x_qqZHtautau_Region_BMin0_incJet1_distpTB2_J2_D_T2_SpcTauLH_Y2015_LTT0_L1_overallSyst_x_StatUncert'
p936
(lp937
F8.229701573804082
aI-1
asS'L_x_DYtt_Region_BMin0_incJet1_distpTB2_J2_D_T2_SpcTauLH_Y2015_LTT0_L1_overallSyst_x_StatUncert'
p938
(lp939
F1.575307142738942
aI-1
asS'L_x_ttH_Region_BMin0_incJet1_distpTB2_J2_D_T2_SpcTauLH_Y2015_LTT0_L1_overallSyst_x_StatUncert'
p940
(lp941
F92.44115454918852
aI-1
asS'L_x_ggZHtautau_Region_BMin0_incJet1_distpTB2_J2_D_T2_SpcTauLH_Y2015_LTT0_L1_overallSyst_x_StatUncert'
p942
(lp943
F2.8294703790264797
aI-1
asS'L_x_VBFHtautau_Region_BMin0_incJet1_distpTB2_J2_D_T2_SpcTauLH_Y2015_LTT0_L1_overallSyst_x_StatUncert'
p944
(lp945
F1.35952213474658
aI-1
asS'L_x_WHtautau_Region_BMin0_incJet1_distpTB2_J2_D_T2_SpcTauLH_Y2015_LTT0_L1_overallSyst_x_StatUncert'
p946
(lp947
F0.6512057411776887
aI-1
asg20
(lp948
F5.9658280885211115
aI-1
asS'L_x_Ztthf_Region_BMin0_incJet1_distpTB2_J2_D_T2_SpcTauLH_Y2015_LTT0_L1_overallSyst_x_StatUncert'
p949
(lp950
F1654.3119318930953
aI-1
asS'L_x_qqZHbb_Region_BMin0_incJet1_distpTB2_J2_D_T2_SpcTauLH_Y2015_LTT0_L1_overallSyst_x_StatUncert'
p951
(lp952
F17.354277251829984
aI-1
asS'L_x_W_Region_BMin0_incJet1_distpTB2_J2_D_T2_SpcTauLH_Y2015_LTT0_L1_overallSyst_x_StatUncert'
p953
(lp954
F72.86247473382713
aI-1
asS'L_x_Zhf_Region_BMin0_incJet1_distpTB2_J2_D_T2_SpcTauLH_Y2015_LTT0_L1_overallSyst_x_StatUncert'
p955
(lp956
F921.0629593055679
aI-1
asS'L_x_hhttbbVBFSM_Region_BMin0_incJet1_distpTB2_J2_D_T2_SpcTauLH_Y2015_LTT0_L1_overallSyst_x_HistSyst'
p957
(lp958
F0.1954590680835172
aI-1
asg11
F98449.0
sS'L_x_hhttbb_Region_BMin0_incJet1_distpTB2_J2_D_T2_SpcTauLH_Y2015_LTT0_L1_overallSyst_x_HistSyst'
p959
(lp960
F5.770369020437594
aI-1
asg44
(lp961
F98140.23686038208
aI-1
asS'L_x_ggFHtautau_Region_BMin0_incJet1_distpTB2_J2_D_T2_SpcTauLH_Y2015_LTT0_L1_overallSyst_x_StatUncert'
p962
(lp963
F17.42525560660759
aI-1
asS'L_x_ggZHbb_Region_BMin0_incJet1_distpTB2_J2_D_T2_SpcTauLH_Y2015_LTT0_L1_overallSyst_x_StatUncert'
p964
(lp965
F5.67020622560094
aI-1
asS'L_x_Zttlf_Region_BMin0_incJet1_distpTB2_J2_D_T2_SpcTauLH_Y2015_LTT0_L1_overallSyst_x_StatUncert'
p966
(lp967
F78.87336464036916
aI-1
asS'L_x_Wtt_Region_BMin0_incJet1_distpTB2_J2_D_T2_SpcTauLH_Y2015_LTT0_L1_overallSyst_x_StatUncert'
p968
(lp969
F4.989660100331144
aI-1
assS'Region_BMin0_incJet1_distdPtLepTau_J2_D_T2_SpcTauLH_Y2015_LTT1_L1'
p970
(dp971
g3
F0.00022152596149260865
sS'L_x_hhttbb_Region_BMin0_incJet1_distdPtLepTau_J2_D_T2_SpcTauLH_Y2015_LTT1_L1_overallSyst_x_HistSyst'
p972
(lp973
F1.3585668851601724
aI-1
asS'L_x_Zttlf_Region_BMin0_incJet1_distdPtLepTau_J2_D_T2_SpcTauLH_Y2015_LTT1_L1_overallSyst_x_StatUncert'
p974
(lp975
F40.71205328037329
aI-1
asS'L_x_ttbar_Region_BMin0_incJet1_distdPtLepTau_J2_D_T2_SpcTauLH_Y2015_LTT1_L1_overallSyst_x_StatUncert'
p976
(lp977
F3962.6318298989445
aI-1
asg4
F0.017678029221922367
sS'L_x_diboson_Region_BMin0_incJet1_distdPtLepTau_J2_D_T2_SpcTauLH_Y2015_LTT1_L1_overallSyst_x_StatUncert'
p978
(lp979
F19.651981486428248
aI-1
asS'L_x_qqZHtautau_Region_BMin0_incJet1_distdPtLepTau_J2_D_T2_SpcTauLH_Y2015_LTT1_L1_overallSyst_x_StatUncert'
p980
(lp981
F2.066592777534424
aI-1
asg7
(lp982
F1.4110397930118932
aF-1.0
asS'L_x_DYtt_Region_BMin0_incJet1_distdPtLepTau_J2_D_T2_SpcTauLH_Y2015_LTT1_L1_overallSyst_x_StatUncert'
p983
(lp984
F0.2539031862604279
aI-1
asS'L_x_ttH_Region_BMin0_incJet1_distdPtLepTau_J2_D_T2_SpcTauLH_Y2015_LTT1_L1_overallSyst_x_StatUncert'
p985
(lp986
F10.727806318670885
aI-1
asS'L_x_WHtautau_Region_BMin0_incJet1_distdPtLepTau_J2_D_T2_SpcTauLH_Y2015_LTT1_L1_overallSyst_x_StatUncert'
p987
(lp988
F0.15560656656125404
aI-1
asg30
(lp989
F6369.636242653091
aI-1
asS'L_x_W_Region_BMin0_incJet1_distdPtLepTau_J2_D_T2_SpcTauLH_Y2015_LTT1_L1_overallSyst_x_StatUncert'
p990
(lp991
F1.1333633604138413
aI-1
asS'L_x_ggFHtautau_Region_BMin0_incJet1_distdPtLepTau_J2_D_T2_SpcTauLH_Y2015_LTT1_L1_overallSyst_x_StatUncert'
p992
(lp993
F4.568827686878564
aI-1
asS'L_x_Wtt_Region_BMin0_incJet1_distdPtLepTau_J2_D_T2_SpcTauLH_Y2015_LTT1_L1_overallSyst_x_StatUncert'
p994
(lp995
F2.438738263970542
aI-1
asS'L_x_Ztthf_Region_BMin0_incJet1_distdPtLepTau_J2_D_T2_SpcTauLH_Y2015_LTT1_L1_overallSyst_x_StatUncert'
p996
(lp997
F534.6942473774035
aI-1
asS'L_x_DY_Region_BMin0_incJet1_distdPtLepTau_J2_D_T2_SpcTauLH_Y2015_LTT1_L1_overallSyst_x_StatUncert'
p998
(lp999
F0.5960781132491896
aI-1
asg20
(lp1000
F1.4110397930118932
aI-1
asS'L_x_stop_Region_BMin0_incJet1_distdPtLepTau_J2_D_T2_SpcTauLH_Y2015_LTT1_L1_overallSyst_x_StatUncert'
p1001
(lp1002
F201.5273812334373
aI-1
asS'L_x_Zlf_Region_BMin0_incJet1_distdPtLepTau_J2_D_T2_SpcTauLH_Y2015_LTT1_L1_overallSyst_x_StatUncert'
p1003
(lp1004
F2.160108440109343
aI-1
asS'L_x_ggZHbb_Region_BMin0_incJet1_distdPtLepTau_J2_D_T2_SpcTauLH_Y2015_LTT1_L1_overallSyst_x_StatUncert'
p1005
(lp1006
F1.4087275541750823
aI-1
asS'L_x_Fake_Region_BMin0_incJet1_distdPtLepTau_J2_D_T2_SpcTauLH_Y2015_LTT1_L1_overallSyst_x_StatUncert'
p1007
(lp1008
F1529.2376649527891
aI-1
asg11
F6346.0
sS'L_x_VBFHtautau_Region_BMin0_incJet1_distdPtLepTau_J2_D_T2_SpcTauLH_Y2015_LTT1_L1_overallSyst_x_StatUncert'
p1009
(lp1010
F0.3439913687298536
aI-1
asS'L_x_WHbb_Region_BMin0_incJet1_distdPtLepTau_J2_D_T2_SpcTauLH_Y2015_LTT1_L1_overallSyst_x_StatUncert'
p1011
(lp1012
F0.1629170423920238
aI-1
asg44
(lp1013
F6371.047282446103
aI-1
asS'L_x_Zhf_Region_BMin0_incJet1_distdPtLepTau_J2_D_T2_SpcTauLH_Y2015_LTT1_L1_overallSyst_x_StatUncert'
p1014
(lp1015
F50.7392580167089
aI-1
asS'L_x_qqZHbb_Region_BMin0_incJet1_distdPtLepTau_J2_D_T2_SpcTauLH_Y2015_LTT1_L1_overallSyst_x_StatUncert'
p1016
(lp1017
F3.7049982542971076
aI-1
asS'L_x_hhttbbVBFSM_Region_BMin0_incJet1_distdPtLepTau_J2_D_T2_SpcTauLH_Y2015_LTT1_L1_overallSyst_x_HistSyst'
p1018
(lp1019
F0.05247290785172085
aI-1
asS'L_x_ggZHtautau_Region_BMin0_incJet1_distdPtLepTau_J2_D_T2_SpcTauLH_Y2015_LTT1_L1_overallSyst_x_StatUncert'
p1020
(lp1021
F0.7201674737639352
aI-1
ass.