(dp0
S'Region_BMin0_incJet1_distmMMC_J2_D_T2_SpcTauLH_Y2015_LTT1_L1'
p1
(dp2
S'S/B'
p3
F0.00021959612688296078
sS'S/sqrt(S+B)'
p4
F0.017973733860826603
sS'L_x_ttbar_Region_BMin0_incJet1_distmMMC_J2_D_T2_SpcTauLH_Y2015_LTT1_L1_overallSyst_x_StatUncert'
p5
(lp6
F4205.87571002543
aI-1
asS'SignalExpected'
p7
(lp8
F1.4714560549728048
aF-1.0
asS'L_x_WHbb_Region_BMin0_incJet1_distmMMC_J2_D_T2_SpcTauLH_Y2015_LTT1_L1_overallSyst_x_StatUncert'
p9
(lp10
F0.17295894108247012
aI-1
asS'data'
p11
F6348.0
sS'L_x_Zlf_Region_BMin0_incJet1_distmMMC_J2_D_T2_SpcTauLH_Y2015_LTT1_L1_overallSyst_x_StatUncert'
p12
(lp13
F2.725040029268712
aI-1
asS'L_x_ggFHtautau_Region_BMin0_incJet1_distmMMC_J2_D_T2_SpcTauLH_Y2015_LTT1_L1_overallSyst_x_StatUncert'
p14
(lp15
F4.54120119754225
aI-1
asS'L_x_Zttlf_Region_BMin0_incJet1_distmMMC_J2_D_T2_SpcTauLH_Y2015_LTT1_L1_overallSyst_x_StatUncert'
p16
(lp17
F48.65003301901743
aI-1
asS'L_x_ggZHbb_Region_BMin0_incJet1_distmMMC_J2_D_T2_SpcTauLH_Y2015_LTT1_L1_overallSyst_x_StatUncert'
p18
(lp19
F1.4563582392438548
aI-1
asS'Signal'
p20
(lp21
F1.4714560549728048
aI-1
asS'L_x_Ztthf_Region_BMin0_incJet1_distmMMC_J2_D_T2_SpcTauLH_Y2015_LTT1_L1_overallSyst_x_StatUncert'
p22
(lp23
F404.38957834336907
aI-1
asS'L_x_hhttbb_Region_BMin0_incJet1_distmMMC_J2_D_T2_SpcTauLH_Y2015_LTT1_L1_overallSyst_x_HistSyst'
p24
(lp25
F1.4167132848015171
aI-1
asS'L_x_DY_Region_BMin0_incJet1_distmMMC_J2_D_T2_SpcTauLH_Y2015_LTT1_L1_overallSyst_x_StatUncert'
p26
(lp27
F0.6285927258431911
aI-1
asS'L_x_VBFHtautau_Region_BMin0_incJet1_distmMMC_J2_D_T2_SpcTauLH_Y2015_LTT1_L1_overallSyst_x_StatUncert'
p28
(lp29
F0.3682563276961446
aI-1
asS'Bkg'
p30
(lp31
F6700.7377400469995
aI-1
asS'L_x_Fake_Region_BMin0_incJet1_distmMMC_J2_D_T2_SpcTauLH_Y2015_LTT1_L1_overallSyst_x_StatUncert'
p32
(lp33
F1751.8320442438126
aI-1
asS'L_x_hhttbbVBFSM_Region_BMin0_incJet1_distmMMC_J2_D_T2_SpcTauLH_Y2015_LTT1_L1_overallSyst_x_HistSyst'
p34
(lp35
F0.0547427701712877
aI-1
asS'L_x_ggZHtautau_Region_BMin0_incJet1_distmMMC_J2_D_T2_SpcTauLH_Y2015_LTT1_L1_overallSyst_x_StatUncert'
p36
(lp37
F0.7385203754529357
aI-1
asS'L_x_DYtt_Region_BMin0_incJet1_distmMMC_J2_D_T2_SpcTauLH_Y2015_LTT1_L1_overallSyst_x_StatUncert'
p38
(lp39
F0.2631887197494507
aI-1
asS'L_x_qqZHbb_Region_BMin0_incJet1_distmMMC_J2_D_T2_SpcTauLH_Y2015_LTT1_L1_overallSyst_x_StatUncert'
p40
(lp41
F3.8523704260587692
aI-1
asS'L_x_WHtautau_Region_BMin0_incJet1_distmMMC_J2_D_T2_SpcTauLH_Y2015_LTT1_L1_overallSyst_x_StatUncert'
p42
(lp43
F0.1717551415786147
aI-1
asS'MC'
p44
(lp45
F6702.209196101972
aI-1
asS'L_x_ttH_Region_BMin0_incJet1_distmMMC_J2_D_T2_SpcTauLH_Y2015_LTT1_L1_overallSyst_x_StatUncert'
p46
(lp47
F10.966868012794293
aI-1
asS'L_x_Wtt_Region_BMin0_incJet1_distmMMC_J2_D_T2_SpcTauLH_Y2015_LTT1_L1_overallSyst_x_StatUncert'
p48
(lp49
F2.7000641375780106
aI-1
asS'L_x_W_Region_BMin0_incJet1_distmMMC_J2_D_T2_SpcTauLH_Y2015_LTT1_L1_overallSyst_x_StatUncert'
p50
(lp51
F1.3088553845882416
aI-1
asS'L_x_diboson_Region_BMin0_incJet1_distmMMC_J2_D_T2_SpcTauLH_Y2015_LTT1_L1_overallSyst_x_StatUncert'
p52
(lp53
F20.7210198584944
aI-1
asS'L_x_stop_Region_BMin0_incJet1_distmMMC_J2_D_T2_SpcTauLH_Y2015_LTT1_L1_overallSyst_x_StatUncert'
p54
(lp55
F197.07020823657513
aI-1
asS'L_x_qqZHtautau_Region_BMin0_incJet1_distmMMC_J2_D_T2_SpcTauLH_Y2015_LTT1_L1_overallSyst_x_StatUncert'
p56
(lp57
F2.164147101342678
aI-1
asS'L_x_Zhf_Region_BMin0_incJet1_distmMMC_J2_D_T2_SpcTauLH_Y2015_LTT1_L1_overallSyst_x_StatUncert'
p58
(lp59
F40.14096956048161
aI-1
assS'Region_BMin0_incJet1_distMhh_J2_D_T2_SpcTauLH_Y2015_LTT1_L1'
p60
(dp61
S'L_x_qqZHbb_Region_BMin0_incJet1_distMhh_J2_D_T2_SpcTauLH_Y2015_LTT1_L1_overallSyst_x_StatUncert'
p62
(lp63
F3.850294533185661
aI-1
asS'L_x_WHbb_Region_BMin0_incJet1_distMhh_J2_D_T2_SpcTauLH_Y2015_LTT1_L1_overallSyst_x_StatUncert'
p64
(lp65
F0.17295894082053564
aI-1
asg3
F0.00021948280965258972
sS'L_x_Zhf_Region_BMin0_incJet1_distMhh_J2_D_T2_SpcTauLH_Y2015_LTT1_L1_overallSyst_x_StatUncert'
p66
(lp67
F41.29881290346384
aI-1
asS'L_x_DYtt_Region_BMin0_incJet1_distMhh_J2_D_T2_SpcTauLH_Y2015_LTT1_L1_overallSyst_x_StatUncert'
p68
(lp69
F0.2631887272000313
aI-1
asS'L_x_VBFHtautau_Region_BMin0_incJet1_distMhh_J2_D_T2_SpcTauLH_Y2015_LTT1_L1_overallSyst_x_StatUncert'
p70
(lp71
F0.36114379472564906
aI-1
asg4
F0.017964985927256896
sg7
(lp72
F1.4707828641221568
aF-1.0
asS'L_x_ggFHtautau_Region_BMin0_incJet1_distMhh_J2_D_T2_SpcTauLH_Y2015_LTT1_L1_overallSyst_x_StatUncert'
p73
(lp74
F4.49811821244657
aI-1
asS'L_x_DY_Region_BMin0_incJet1_distMhh_J2_D_T2_SpcTauLH_Y2015_LTT1_L1_overallSyst_x_StatUncert'
p75
(lp76
F0.6285927221179008
aI-1
asS'L_x_ggZHbb_Region_BMin0_incJet1_distMhh_J2_D_T2_SpcTauLH_Y2015_LTT1_L1_overallSyst_x_StatUncert'
p77
(lp78
F1.4563581881811842
aI-1
asg30
(lp79
F6701.130108777987
aI-1
asS'L_x_Zttlf_Region_BMin0_incJet1_distMhh_J2_D_T2_SpcTauLH_Y2015_LTT1_L1_overallSyst_x_StatUncert'
p80
(lp81
F49.84310708986595
aI-1
asS'L_x_hhttbbVBFSM_Region_BMin0_incJet1_distMhh_J2_D_T2_SpcTauLH_Y2015_LTT1_L1_overallSyst_x_HistSyst'
p82
(lp83
F0.05454398180518183
aI-1
asS'L_x_Wtt_Region_BMin0_incJet1_distMhh_J2_D_T2_SpcTauLH_Y2015_LTT1_L1_overallSyst_x_StatUncert'
p84
(lp85
F2.801008529961109
aI-1
asS'L_x_ttH_Region_BMin0_incJet1_distMhh_J2_D_T2_SpcTauLH_Y2015_LTT1_L1_overallSyst_x_StatUncert'
p86
(lp87
F10.969706505769864
aI-1
asS'L_x_W_Region_BMin0_incJet1_distMhh_J2_D_T2_SpcTauLH_Y2015_LTT1_L1_overallSyst_x_StatUncert'
p88
(lp89
F1.2475018203258514
aI-1
asS'L_x_qqZHtautau_Region_BMin0_incJet1_distMhh_J2_D_T2_SpcTauLH_Y2015_LTT1_L1_overallSyst_x_StatUncert'
p90
(lp91
F2.1709291774313897
aI-1
asS'L_x_ggZHtautau_Region_BMin0_incJet1_distMhh_J2_D_T2_SpcTauLH_Y2015_LTT1_L1_overallSyst_x_StatUncert'
p92
(lp93
F0.7385203673038632
aI-1
asS'L_x_diboson_Region_BMin0_incJet1_distMhh_J2_D_T2_SpcTauLH_Y2015_LTT1_L1_overallSyst_x_StatUncert'
p94
(lp95
F20.694984572473913
aI-1
asS'L_x_Ztthf_Region_BMin0_incJet1_distMhh_J2_D_T2_SpcTauLH_Y2015_LTT1_L1_overallSyst_x_StatUncert'
p96
(lp97
F401.77310149371624
aI-1
asS'L_x_Fake_Region_BMin0_incJet1_distMhh_J2_D_T2_SpcTauLH_Y2015_LTT1_L1_overallSyst_x_StatUncert'
p98
(lp99
F1751.336535513401
aI-1
asg20
(lp100
F1.4707828641221568
aI-1
asS'L_x_hhttbb_Region_BMin0_incJet1_distMhh_J2_D_T2_SpcTauLH_Y2015_LTT1_L1_overallSyst_x_HistSyst'
p101
(lp102
F1.416238882316975
aI-1
asS'L_x_ttbar_Region_BMin0_incJet1_distMhh_J2_D_T2_SpcTauLH_Y2015_LTT1_L1_overallSyst_x_StatUncert'
p103
(lp104
F4206.7489118129015
aI-1
asg11
F6341.0
sg44
(lp105
F6702.60089164211
aI-1
asS'L_x_stop_Region_BMin0_incJet1_distMhh_J2_D_T2_SpcTauLH_Y2015_LTT1_L1_overallSyst_x_StatUncert'
p106
(lp107
F197.11063076928258
aI-1
asS'L_x_Zlf_Region_BMin0_incJet1_distMhh_J2_D_T2_SpcTauLH_Y2015_LTT1_L1_overallSyst_x_StatUncert'
p108
(lp109
F2.9939479660242796
aI-1
asS'L_x_WHtautau_Region_BMin0_incJet1_distMhh_J2_D_T2_SpcTauLH_Y2015_LTT1_L1_overallSyst_x_StatUncert'
p110
(lp111
F0.17175513738766313
aI-1
assS'Region_BMin0_incJet1_distdRbb_J2_D_T2_SpcTauLH_Y2015_LTT0_L1'
p112
(dp113
S'L_x_ggZHbb_Region_BMin0_incJet1_distdRbb_J2_D_T2_SpcTauLH_Y2015_LTT0_L1_overallSyst_x_StatUncert'
p114
(lp115
F5.800336860353127
aI-1
asg3
F5.968942642905018e-05
sS'L_x_ggFHtautau_Region_BMin0_incJet1_distdRbb_J2_D_T2_SpcTauLH_Y2015_LTT0_L1_overallSyst_x_StatUncert'
p116
(lp117
F17.060061041265726
aI-1
asS'L_x_ttbar_Region_BMin0_incJet1_distdRbb_J2_D_T2_SpcTauLH_Y2015_LTT0_L1_overallSyst_x_StatUncert'
p118
(lp119
F61622.28138632327
aI-1
asS'L_x_Ztthf_Region_BMin0_incJet1_distdRbb_J2_D_T2_SpcTauLH_Y2015_LTT0_L1_overallSyst_x_StatUncert'
p120
(lp121
F1218.2378364801407
aI-1
asg4
F0.01903743014594335
sS'L_x_qqZHtautau_Region_BMin0_incJet1_distdRbb_J2_D_T2_SpcTauLH_Y2015_LTT0_L1_overallSyst_x_StatUncert'
p122
(lp123
F8.475917778909206
aI-1
asg7
(lp124
F6.072187338875665
aF-1.0
asS'L_x_diboson_Region_BMin0_incJet1_distdRbb_J2_D_T2_SpcTauLH_Y2015_LTT0_L1_overallSyst_x_StatUncert'
p125
(lp126
F154.7226851861924
aI-1
asS'L_x_qqZHbb_Region_BMin0_incJet1_distdRbb_J2_D_T2_SpcTauLH_Y2015_LTT0_L1_overallSyst_x_StatUncert'
p127
(lp128
F17.67710112966597
aI-1
asg30
(lp129
F101729.69824217306
aI-1
asS'L_x_Fake_Region_BMin0_incJet1_distdRbb_J2_D_T2_SpcTauLH_Y2015_LTT0_L1_overallSyst_x_StatUncert'
p130
(lp131
F33912.711989343166
aI-1
asS'L_x_stop_Region_BMin0_incJet1_distdRbb_J2_D_T2_SpcTauLH_Y2015_LTT0_L1_overallSyst_x_StatUncert'
p132
(lp133
F3689.0094083324075
aI-1
asS'L_x_WHtautau_Region_BMin0_incJet1_distdRbb_J2_D_T2_SpcTauLH_Y2015_LTT0_L1_overallSyst_x_StatUncert'
p134
(lp135
F0.7001967430114746
aI-1
asg20
(lp136
F6.072187338875665
aI-1
asS'L_x_Zhf_Region_BMin0_incJet1_distdRbb_J2_D_T2_SpcTauLH_Y2015_LTT0_L1_overallSyst_x_StatUncert'
p137
(lp138
F685.0161966085434
aI-1
asS'L_x_WHbb_Region_BMin0_incJet1_distdRbb_J2_D_T2_SpcTauLH_Y2015_LTT0_L1_overallSyst_x_StatUncert'
p139
(lp140
F6.941101472824812
aI-1
asS'L_x_hhttbbVBFSM_Region_BMin0_incJet1_distdRbb_J2_D_T2_SpcTauLH_Y2015_LTT0_L1_overallSyst_x_HistSyst'
p141
(lp142
F0.20024862507852959
aI-1
asS'L_x_DYtt_Region_BMin0_incJet1_distdRbb_J2_D_T2_SpcTauLH_Y2015_LTT0_L1_overallSyst_x_StatUncert'
p143
(lp144
F2.7205953001976013
aI-1
asS'L_x_Zlf_Region_BMin0_incJet1_distdRbb_J2_D_T2_SpcTauLH_Y2015_LTT0_L1_overallSyst_x_StatUncert'
p145
(lp146
F90.60248339176178
aI-1
asg11
F98449.0
sS'L_x_DY_Region_BMin0_incJet1_distdRbb_J2_D_T2_SpcTauLH_Y2015_LTT0_L1_overallSyst_x_StatUncert'
p147
(lp148
F14.817635953426361
aI-1
asS'L_x_Wtt_Region_BMin0_incJet1_distdRbb_J2_D_T2_SpcTauLH_Y2015_LTT0_L1_overallSyst_x_StatUncert'
p149
(lp150
F5.357787050306797
aI-1
asS'L_x_W_Region_BMin0_incJet1_distdRbb_J2_D_T2_SpcTauLH_Y2015_LTT0_L1_overallSyst_x_StatUncert'
p151
(lp152
F75.3549353480339
aI-1
asg44
(lp153
F101735.77042951193
aI-1
asS'L_x_VBFHtautau_Region_BMin0_incJet1_distdRbb_J2_D_T2_SpcTauLH_Y2015_LTT0_L1_overallSyst_x_StatUncert'
p154
(lp155
F1.4113844446837902
aI-1
asS'L_x_Zttlf_Region_BMin0_incJet1_distdRbb_J2_D_T2_SpcTauLH_Y2015_LTT0_L1_overallSyst_x_StatUncert'
p156
(lp157
F104.93762075901031
aI-1
asS'L_x_ttH_Region_BMin0_incJet1_distdRbb_J2_D_T2_SpcTauLH_Y2015_LTT0_L1_overallSyst_x_StatUncert'
p158
(lp159
F92.99009008076973
aI-1
asS'L_x_ggZHtautau_Region_BMin0_incJet1_distdRbb_J2_D_T2_SpcTauLH_Y2015_LTT0_L1_overallSyst_x_StatUncert'
p160
(lp161
F2.871492545120418
aI-1
asS'L_x_hhttbb_Region_BMin0_incJet1_distdRbb_J2_D_T2_SpcTauLH_Y2015_LTT0_L1_overallSyst_x_HistSyst'
p162
(lp163
F5.871938713797135
aI-1
assS'Region_BMin0_incJet1_distdPhiLep0MET_J2_D_T2_SpcTauLH_Y2015_LTT1_L1'
p164
(dp165
S'L_x_VBFHtautau_Region_BMin0_incJet1_distdPhiLep0MET_J2_D_T2_SpcTauLH_Y2015_LTT1_L1_overallSyst_x_StatUncert'
p166
(lp167
F0.36825634622210773
aI-1
asg3
F0.00021942803851461272
sS'L_x_WHbb_Region_BMin0_incJet1_distdPhiLep0MET_J2_D_T2_SpcTauLH_Y2015_LTT1_L1_overallSyst_x_StatUncert'
p168
(lp169
F0.17295894726863423
aI-1
asS'L_x_ttbar_Region_BMin0_incJet1_distdPhiLep0MET_J2_D_T2_SpcTauLH_Y2015_LTT1_L1_overallSyst_x_StatUncert'
p170
(lp171
F4206.901429875215
aI-1
asg4
F0.017966855423619327
sS'L_x_ggFHtautau_Region_BMin0_incJet1_distdPhiLep0MET_J2_D_T2_SpcTauLH_Y2015_LTT1_L1_overallSyst_x_StatUncert'
p172
(lp173
F4.541201212126033
aI-1
asS'L_x_ttH_Region_BMin0_incJet1_distdPhiLep0MET_J2_D_T2_SpcTauLH_Y2015_LTT1_L1_overallSyst_x_StatUncert'
p174
(lp175
F10.969706758405366
aI-1
asS'L_x_Zhf_Region_BMin0_incJet1_distdPhiLep0MET_J2_D_T2_SpcTauLH_Y2015_LTT1_L1_overallSyst_x_StatUncert'
p176
(lp177
F40.17839110163436
aI-1
asg7
(lp178
F1.4714561051626665
aF-1.0
asS'L_x_ggZHbb_Region_BMin0_incJet1_distdPhiLep0MET_J2_D_T2_SpcTauLH_Y2015_LTT1_L1_overallSyst_x_StatUncert'
p179
(lp180
F1.4563581806623662
aI-1
asS'L_x_hhttbb_Region_BMin0_incJet1_distdPhiLep0MET_J2_D_T2_SpcTauLH_Y2015_LTT1_L1_overallSyst_x_HistSyst'
p181
(lp182
F1.4167133408295114
aI-1
asg30
(lp183
F6705.870932099115
aI-1
asS'L_x_Zttlf_Region_BMin0_incJet1_distdPhiLep0MET_J2_D_T2_SpcTauLH_Y2015_LTT1_L1_overallSyst_x_StatUncert'
p184
(lp185
F53.45327981491803
aI-1
asS'L_x_Wtt_Region_BMin0_incJet1_distdPhiLep0MET_J2_D_T2_SpcTauLH_Y2015_LTT1_L1_overallSyst_x_StatUncert'
p186
(lp187
F2.700064148009779
aI-1
asS'L_x_hhttbbVBFSM_Region_BMin0_incJet1_distdPhiLep0MET_J2_D_T2_SpcTauLH_Y2015_LTT1_L1_overallSyst_x_HistSyst'
p188
(lp189
F0.05474276433315521
aI-1
asS'L_x_W_Region_BMin0_incJet1_distdPhiLep0MET_J2_D_T2_SpcTauLH_Y2015_LTT1_L1_overallSyst_x_StatUncert'
p190
(lp191
F1.3088553742893838
aI-1
asS'L_x_DY_Region_BMin0_incJet1_distdPhiLep0MET_J2_D_T2_SpcTauLH_Y2015_LTT1_L1_overallSyst_x_StatUncert'
p192
(lp193
F0.628592738935243
aI-1
asS'L_x_WHtautau_Region_BMin0_incJet1_distdPhiLep0MET_J2_D_T2_SpcTauLH_Y2015_LTT1_L1_overallSyst_x_StatUncert'
p194
(lp195
F0.17175514227532057
aI-1
asS'L_x_qqZHbb_Region_BMin0_incJet1_distdPhiLep0MET_J2_D_T2_SpcTauLH_Y2015_LTT1_L1_overallSyst_x_StatUncert'
p196
(lp197
F3.852370505815304
aI-1
asg20
(lp198
F1.4714561051626665
aI-1
asS'L_x_DYtt_Region_BMin0_incJet1_distdPhiLep0MET_J2_D_T2_SpcTauLH_Y2015_LTT1_L1_overallSyst_x_StatUncert'
p199
(lp200
F0.26318873112184893
aI-1
asS'L_x_Ztthf_Region_BMin0_incJet1_distdPhiLep0MET_J2_D_T2_SpcTauLH_Y2015_LTT1_L1_overallSyst_x_StatUncert'
p201
(lp202
F404.2931130572126
aI-1
asg11
F6350.0
sS'L_x_ggZHtautau_Region_BMin0_incJet1_distdPhiLep0MET_J2_D_T2_SpcTauLH_Y2015_LTT1_L1_overallSyst_x_StatUncert'
p203
(lp204
F0.7385204004275857
aI-1
asS'L_x_Zlf_Region_BMin0_incJet1_distdPhiLep0MET_J2_D_T2_SpcTauLH_Y2015_LTT1_L1_overallSyst_x_StatUncert'
p205
(lp206
F2.452578486168063
aI-1
asS'L_x_stop_Region_BMin0_incJet1_distdPhiLep0MET_J2_D_T2_SpcTauLH_Y2015_LTT1_L1_overallSyst_x_StatUncert'
p207
(lp208
F197.11063487992632
aI-1
asg44
(lp209
F6707.342388204278
aI-1
asS'L_x_Fake_Region_BMin0_incJet1_distdPhiLep0MET_J2_D_T2_SpcTauLH_Y2015_LTT1_L1_overallSyst_x_StatUncert'
p210
(lp211
F1751.4252732906527
aI-1
asS'L_x_diboson_Region_BMin0_incJet1_distdPhiLep0MET_J2_D_T2_SpcTauLH_Y2015_LTT1_L1_overallSyst_x_StatUncert'
p212
(lp213
F20.71347386708071
aI-1
asS'L_x_qqZHtautau_Region_BMin0_incJet1_distdPhiLep0MET_J2_D_T2_SpcTauLH_Y2015_LTT1_L1_overallSyst_x_StatUncert'
p214
(lp215
F2.170929240747231
aI-1
assS'Region_BMin0_incJet1_distdPhiHBB_J2_D_T2_SpcTauLH_Y2015_LTT0_L1'
p216
(dp217
g3
F4.368529762589286e-05
sS'L_x_DY_Region_BMin0_incJet1_distdPhiHBB_J2_D_T2_SpcTauLH_Y2015_LTT0_L1_overallSyst_x_StatUncert'
p218
(lp219
F10.733325383549793
aI-1
asg4
F0.013081824703092914
sS'L_x_Wtt_Region_BMin0_incJet1_distdPhiHBB_J2_D_T2_SpcTauLH_Y2015_LTT0_L1_overallSyst_x_StatUncert'
p220
(lp221
F4.219073669196456
aI-1
asg7
(lp222
F3.9176020974788432
aF-1.0
asg30
(lp223
F89677.81634516845
aI-1
asS'L_x_diboson_Region_BMin0_incJet1_distdPhiHBB_J2_D_T2_SpcTauLH_Y2015_LTT0_L1_overallSyst_x_StatUncert'
p224
(lp225
F117.594381435542
aI-1
asS'L_x_qqZHtautau_Region_BMin0_incJet1_distdPhiHBB_J2_D_T2_SpcTauLH_Y2015_LTT0_L1_overallSyst_x_StatUncert'
p226
(lp227
F5.1745532604065225
aI-1
asS'L_x_DYtt_Region_BMin0_incJet1_distdPhiHBB_J2_D_T2_SpcTauLH_Y2015_LTT0_L1_overallSyst_x_StatUncert'
p228
(lp229
F2.3136446282377547
aI-1
asS'L_x_WHtautau_Region_BMin0_incJet1_distdPhiHBB_J2_D_T2_SpcTauLH_Y2015_LTT0_L1_overallSyst_x_StatUncert'
p230
(lp231
F0.5368484053312181
aI-1
asS'L_x_W_Region_BMin0_incJet1_distdPhiHBB_J2_D_T2_SpcTauLH_Y2015_LTT0_L1_overallSyst_x_StatUncert'
p232
(lp233
F67.69385149384605
aI-1
asS'L_x_ttbar_Region_BMin0_incJet1_distdPhiHBB_J2_D_T2_SpcTauLH_Y2015_LTT0_L1_overallSyst_x_StatUncert'
p234
(lp235
F54415.05438181114
aI-1
asS'L_x_ttH_Region_BMin0_incJet1_distdPhiHBB_J2_D_T2_SpcTauLH_Y2015_LTT0_L1_overallSyst_x_StatUncert'
p236
(lp237
F84.88965982905367
aI-1
asS'L_x_Zhf_Region_BMin0_incJet1_distdPhiHBB_J2_D_T2_SpcTauLH_Y2015_LTT0_L1_overallSyst_x_StatUncert'
p238
(lp239
F500.2967518638957
aI-1
asS'L_x_ggZHtautau_Region_BMin0_incJet1_distdPhiHBB_J2_D_T2_SpcTauLH_Y2015_LTT0_L1_overallSyst_x_StatUncert'
p240
(lp241
F2.020796395551339
aI-1
asg20
(lp242
F3.9176020974788432
aI-1
asS'L_x_hhttbbVBFSM_Region_BMin0_incJet1_distdPhiHBB_J2_D_T2_SpcTauLH_Y2015_LTT0_L1_overallSyst_x_HistSyst'
p243
(lp244
F0.1759965514962418
aI-1
asS'L_x_qqZHbb_Region_BMin0_incJet1_distdPhiHBB_J2_D_T2_SpcTauLH_Y2015_LTT0_L1_overallSyst_x_StatUncert'
p245
(lp246
F10.431990209149635
aI-1
asS'L_x_hhttbb_Region_BMin0_incJet1_distdPhiHBB_J2_D_T2_SpcTauLH_Y2015_LTT0_L1_overallSyst_x_HistSyst'
p247
(lp248
F3.741605545982601
aI-1
asg11
F86601.0
sg44
(lp249
F89681.73394726592
aI-1
asS'L_x_Zlf_Region_BMin0_incJet1_distdPhiHBB_J2_D_T2_SpcTauLH_Y2015_LTT0_L1_overallSyst_x_StatUncert'
p250
(lp251
F62.44888271212976
aI-1
asS'L_x_stop_Region_BMin0_incJet1_distdPhiHBB_J2_D_T2_SpcTauLH_Y2015_LTT0_L1_overallSyst_x_StatUncert'
p252
(lp253
F3141.2630994058954
aI-1
asS'L_x_VBFHtautau_Region_BMin0_incJet1_distdPhiHBB_J2_D_T2_SpcTauLH_Y2015_LTT0_L1_overallSyst_x_StatUncert'
p254
(lp255
F1.139190956980685
aI-1
asS'L_x_WHbb_Region_BMin0_incJet1_distdPhiHBB_J2_D_T2_SpcTauLH_Y2015_LTT0_L1_overallSyst_x_StatUncert'
p256
(lp257
F5.653055503749443
aI-1
asS'L_x_ggZHbb_Region_BMin0_incJet1_distdPhiHBB_J2_D_T2_SpcTauLH_Y2015_LTT0_L1_overallSyst_x_StatUncert'
p258
(lp259
F3.995103381455471
aI-1
asS'L_x_Fake_Region_BMin0_incJet1_distdPhiHBB_J2_D_T2_SpcTauLH_Y2015_LTT0_L1_overallSyst_x_StatUncert'
p260
(lp261
F30252.809631735454
aI-1
asS'L_x_ggFHtautau_Region_BMin0_incJet1_distdPhiHBB_J2_D_T2_SpcTauLH_Y2015_LTT0_L1_overallSyst_x_StatUncert'
p262
(lp263
F11.880884757473172
aI-1
asS'L_x_Zttlf_Region_BMin0_incJet1_distdPhiHBB_J2_D_T2_SpcTauLH_Y2015_LTT0_L1_overallSyst_x_StatUncert'
p264
(lp265
F73.73430290534161
aI-1
asS'L_x_Ztthf_Region_BMin0_incJet1_distdPhiHBB_J2_D_T2_SpcTauLH_Y2015_LTT0_L1_overallSyst_x_StatUncert'
p266
(lp267
F903.9329354250748
aI-1
assS'Region_BMin0_incJet1_distmbb_J2_D_T2_SpcTauLH_Y2015_LTT1_L1'
p268
(dp269
g3
F0.00021917616043201117
sg4
F0.017956540962260424
sS'L_x_ggFHtautau_Region_BMin0_incJet1_distmbb_J2_D_T2_SpcTauLH_Y2015_LTT1_L1_overallSyst_x_StatUncert'
p270
(lp271
F4.541201175190508
aI-1
asS'L_x_hhttbbVBFSM_Region_BMin0_incJet1_distmbb_J2_D_T2_SpcTauLH_Y2015_LTT1_L1_overallSyst_x_HistSyst'
p272
(lp273
F0.05474276510904019
aI-1
asg7
(lp274
F1.4714558064933954
aF-1.0
asS'L_x_WHbb_Region_BMin0_incJet1_distmbb_J2_D_T2_SpcTauLH_Y2015_LTT1_L1_overallSyst_x_StatUncert'
p275
(lp276
F0.1729589403839782
aI-1
asS'L_x_Zhf_Region_BMin0_incJet1_distmbb_J2_D_T2_SpcTauLH_Y2015_LTT1_L1_overallSyst_x_StatUncert'
p277
(lp278
F41.772804360836744
aI-1
asg30
(lp279
F6713.575981954677
aI-1
asS'L_x_ggZHbb_Region_BMin0_incJet1_distmbb_J2_D_T2_SpcTauLH_Y2015_LTT1_L1_overallSyst_x_StatUncert'
p280
(lp281
F1.4563581750262529
aI-1
asS'L_x_Zttlf_Region_BMin0_incJet1_distmbb_J2_D_T2_SpcTauLH_Y2015_LTT1_L1_overallSyst_x_StatUncert'
p282
(lp283
F56.527099549770355
aI-1
asS'L_x_DY_Region_BMin0_incJet1_distmbb_J2_D_T2_SpcTauLH_Y2015_LTT1_L1_overallSyst_x_StatUncert'
p284
(lp285
F0.6285927183926105
aI-1
asS'L_x_ttbar_Region_BMin0_incJet1_distmbb_J2_D_T2_SpcTauLH_Y2015_LTT1_L1_overallSyst_x_StatUncert'
p286
(lp287
F4206.901704549789
aI-1
asS'L_x_diboson_Region_BMin0_incJet1_distmbb_J2_D_T2_SpcTauLH_Y2015_LTT1_L1_overallSyst_x_StatUncert'
p288
(lp289
F20.72262030094862
aI-1
asS'L_x_VBFHtautau_Region_BMin0_incJet1_distmbb_J2_D_T2_SpcTauLH_Y2015_LTT1_L1_overallSyst_x_StatUncert'
p290
(lp291
F0.36825632536783814
aI-1
asS'L_x_ttH_Region_BMin0_incJet1_distmbb_J2_D_T2_SpcTauLH_Y2015_LTT1_L1_overallSyst_x_StatUncert'
p292
(lp293
F10.969706281553954
aI-1
asS'L_x_qqZHtautau_Region_BMin0_incJet1_distmbb_J2_D_T2_SpcTauLH_Y2015_LTT1_L1_overallSyst_x_StatUncert'
p294
(lp295
F2.1709291632287204
aI-1
asg20
(lp296
F1.4714558064933954
aI-1
asS'L_x_Fake_Region_BMin0_incJet1_distmbb_J2_D_T2_SpcTauLH_Y2015_LTT1_L1_overallSyst_x_StatUncert'
p297
(lp298
F1751.44774466753
aI-1
asS'L_x_W_Region_BMin0_incJet1_distmbb_J2_D_T2_SpcTauLH_Y2015_LTT1_L1_overallSyst_x_StatUncert'
p299
(lp300
F1.3088553585112095
aI-1
asg11
F6350.0
sS'L_x_Ztthf_Region_BMin0_incJet1_distmbb_J2_D_T2_SpcTauLH_Y2015_LTT1_L1_overallSyst_x_StatUncert'
p301
(lp302
F406.5813980102539
aI-1
asS'L_x_Wtt_Region_BMin0_incJet1_distmbb_J2_D_T2_SpcTauLH_Y2015_LTT1_L1_overallSyst_x_StatUncert'
p303
(lp304
F2.7889189794659615
aI-1
asS'L_x_WHtautau_Region_BMin0_incJet1_distmbb_J2_D_T2_SpcTauLH_Y2015_LTT1_L1_overallSyst_x_StatUncert'
p305
(lp306
F0.17175513818526156
aI-1
asS'L_x_DYtt_Region_BMin0_incJet1_distmbb_J2_D_T2_SpcTauLH_Y2015_LTT1_L1_overallSyst_x_StatUncert'
p307
(lp308
F0.2631887272000313
aI-1
asg44
(lp309
F6715.047437761172
aI-1
asS'L_x_ggZHtautau_Region_BMin0_incJet1_distmbb_J2_D_T2_SpcTauLH_Y2015_LTT1_L1_overallSyst_x_StatUncert'
p310
(lp311
F0.7385203817393631
aI-1
asS'L_x_qqZHbb_Region_BMin0_incJet1_distmbb_J2_D_T2_SpcTauLH_Y2015_LTT1_L1_overallSyst_x_StatUncert'
p312
(lp313
F3.852370288805105
aI-1
asS'L_x_hhttbb_Region_BMin0_incJet1_distmbb_J2_D_T2_SpcTauLH_Y2015_LTT1_L1_overallSyst_x_HistSyst'
p314
(lp315
F1.4167130413843552
aI-1
asS'L_x_stop_Region_BMin0_incJet1_distmbb_J2_D_T2_SpcTauLH_Y2015_LTT1_L1_overallSyst_x_StatUncert'
p316
(lp317
F197.11063021421432
aI-1
asS'L_x_Zlf_Region_BMin0_incJet1_distmbb_J2_D_T2_SpcTauLH_Y2015_LTT1_L1_overallSyst_x_StatUncert'
p318
(lp319
F3.0803686482831836
aI-1
assS'Region_BMin0_incJet1_distmbb_J2_D_T2_SpcTauLH_Y2015_LTT0_L1'
p320
(dp321
S'L_x_ttbar_Region_BMin0_incJet1_distmbb_J2_D_T2_SpcTauLH_Y2015_LTT0_L1_overallSyst_x_StatUncert'
p322
(lp323
F61622.284242510796
aI-1
asg3
F5.968264690638596e-05
sS'L_x_qqZHbb_Region_BMin0_incJet1_distmbb_J2_D_T2_SpcTauLH_Y2015_LTT0_L1_overallSyst_x_StatUncert'
p324
(lp325
F17.6771024732152
aI-1
asS'L_x_Zhf_Region_BMin0_incJet1_distmbb_J2_D_T2_SpcTauLH_Y2015_LTT0_L1_overallSyst_x_StatUncert'
p326
(lp327
F689.5288536548615
aI-1
asg4
F0.019036347486335977
sS'L_x_Zlf_Region_BMin0_incJet1_distmbb_J2_D_T2_SpcTauLH_Y2015_LTT0_L1_overallSyst_x_StatUncert'
p328
(lp329
F92.03879421949387
aI-1
asS'L_x_hhttbb_Region_BMin0_incJet1_distmbb_J2_D_T2_SpcTauLH_Y2015_LTT0_L1_overallSyst_x_HistSyst'
p330
(lp331
F5.871937697516842
aI-1
asg7
(lp332
F6.072186344839793
aF-1.0
asS'L_x_qqZHtautau_Region_BMin0_incJet1_distmbb_J2_D_T2_SpcTauLH_Y2015_LTT0_L1_overallSyst_x_StatUncert'
p333
(lp334
F8.475917801260948
aI-1
asS'L_x_diboson_Region_BMin0_incJet1_distmbb_J2_D_T2_SpcTauLH_Y2015_LTT0_L1_overallSyst_x_StatUncert'
p335
(lp336
F154.91840553469956
aI-1
asg30
(lp337
F101741.23735437205
aI-1
asS'L_x_W_Region_BMin0_incJet1_distmbb_J2_D_T2_SpcTauLH_Y2015_LTT0_L1_overallSyst_x_StatUncert'
p338
(lp339
F75.35493683815002
aI-1
asS'L_x_Zttlf_Region_BMin0_incJet1_distmbb_J2_D_T2_SpcTauLH_Y2015_LTT0_L1_overallSyst_x_StatUncert'
p340
(lp341
F105.37884736061096
aI-1
asS'L_x_WHbb_Region_BMin0_incJet1_distmbb_J2_D_T2_SpcTauLH_Y2015_LTT0_L1_overallSyst_x_StatUncert'
p342
(lp343
F6.941101304721087
aI-1
asS'L_x_ggZHtautau_Region_BMin0_incJet1_distmbb_J2_D_T2_SpcTauLH_Y2015_LTT0_L1_overallSyst_x_StatUncert'
p344
(lp345
F2.8714924736414105
aI-1
asS'L_x_DYtt_Region_BMin0_incJet1_distmbb_J2_D_T2_SpcTauLH_Y2015_LTT0_L1_overallSyst_x_StatUncert'
p346
(lp347
F2.8610601276159286
aI-1
asS'L_x_WHtautau_Region_BMin0_incJet1_distmbb_J2_D_T2_SpcTauLH_Y2015_LTT0_L1_overallSyst_x_StatUncert'
p348
(lp349
F0.7001967430114746
aI-1
asS'L_x_Ztthf_Region_BMin0_incJet1_distmbb_J2_D_T2_SpcTauLH_Y2015_LTT0_L1_overallSyst_x_StatUncert'
p350
(lp351
F1223.1029596626759
aI-1
asg20
(lp352
F6.072186344839793
aI-1
asS'L_x_Wtt_Region_BMin0_incJet1_distmbb_J2_D_T2_SpcTauLH_Y2015_LTT0_L1_overallSyst_x_StatUncert'
p353
(lp354
F5.357787113636732
aI-1
asS'L_x_DY_Region_BMin0_incJet1_distmbb_J2_D_T2_SpcTauLH_Y2015_LTT0_L1_overallSyst_x_StatUncert'
p355
(lp356
F14.954420844092965
aI-1
asS'L_x_ggFHtautau_Region_BMin0_incJet1_distmbb_J2_D_T2_SpcTauLH_Y2015_LTT0_L1_overallSyst_x_StatUncert'
p357
(lp358
F17.060061048250645
aI-1
asg11
F98449.0
sS'L_x_Fake_Region_BMin0_incJet1_distmbb_J2_D_T2_SpcTauLH_Y2015_LTT0_L1_overallSyst_x_StatUncert'
p359
(lp360
F33912.51994419098
aI-1
asS'L_x_VBFHtautau_Region_BMin0_incJet1_distmbb_J2_D_T2_SpcTauLH_Y2015_LTT0_L1_overallSyst_x_StatUncert'
p361
(lp362
F1.4113844176754355
aI-1
asS'L_x_ggZHbb_Region_BMin0_incJet1_distmbb_J2_D_T2_SpcTauLH_Y2015_LTT0_L1_overallSyst_x_StatUncert'
p363
(lp364
F5.800337303895503
aI-1
asg44
(lp365
F101747.30954071689
aI-1
asS'L_x_hhttbbVBFSM_Region_BMin0_incJet1_distmbb_J2_D_T2_SpcTauLH_Y2015_LTT0_L1_overallSyst_x_HistSyst'
p366
(lp367
F0.200248647322951
aI-1
asS'L_x_stop_Region_BMin0_incJet1_distmbb_J2_D_T2_SpcTauLH_Y2015_LTT0_L1_overallSyst_x_StatUncert'
p368
(lp369
F3689.009416434914
aI-1
asS'L_x_ttH_Region_BMin0_incJet1_distmbb_J2_D_T2_SpcTauLH_Y2015_LTT0_L1_overallSyst_x_StatUncert'
p370
(lp371
F92.99009231384844
aI-1
assS'Region_BMin0_incJet1_distMtW_J2_D_T2_SpcTauLH_Y2015_LTT0_L1'
p372
(dp373
S'L_x_WHtautau_Region_BMin0_incJet1_distMtW_J2_D_T2_SpcTauLH_Y2015_LTT0_L1_overallSyst_x_StatUncert'
p374
(lp375
F0.7001967113465071
aI-1
asS'L_x_ttH_Region_BMin0_incJet1_distMtW_J2_D_T2_SpcTauLH_Y2015_LTT0_L1_overallSyst_x_StatUncert'
p376
(lp377
F92.59499132633209
aI-1
asS'L_x_DYtt_Region_BMin0_incJet1_distMtW_J2_D_T2_SpcTauLH_Y2015_LTT0_L1_overallSyst_x_StatUncert'
p378
(lp379
F2.720595344901085
aI-1
asS'L_x_hhttbbVBFSM_Region_BMin0_incJet1_distMtW_J2_D_T2_SpcTauLH_Y2015_LTT0_L1_overallSyst_x_HistSyst'
p380
(lp381
F0.20024343223121832
aI-1
asg4
F0.01906232995335091
sS'L_x_Zhf_Region_BMin0_incJet1_distMtW_J2_D_T2_SpcTauLH_Y2015_LTT0_L1_overallSyst_x_StatUncert'
p382
(lp383
F677.7872107997537
aI-1
asg3
F5.98457445390487e-05
sS'L_x_Wtt_Region_BMin0_incJet1_distMtW_J2_D_T2_SpcTauLH_Y2015_LTT0_L1_overallSyst_x_StatUncert'
p384
(lp385
F5.357787179760635
aI-1
asg7
(lp386
F6.072180609375209
aF-1.0
asg30
(lp387
F101463.86608012166
aI-1
asS'L_x_ttbar_Region_BMin0_incJet1_distMtW_J2_D_T2_SpcTauLH_Y2015_LTT0_L1_overallSyst_x_StatUncert'
p388
(lp389
F61393.362731933594
aI-1
asS'L_x_stop_Region_BMin0_incJet1_distMtW_J2_D_T2_SpcTauLH_Y2015_LTT0_L1_overallSyst_x_StatUncert'
p390
(lp391
F3676.38010597229
aI-1
asS'L_x_Zlf_Region_BMin0_incJet1_distMtW_J2_D_T2_SpcTauLH_Y2015_LTT0_L1_overallSyst_x_StatUncert'
p392
(lp393
F87.9606461469084
aI-1
asS'L_x_W_Region_BMin0_incJet1_distMtW_J2_D_T2_SpcTauLH_Y2015_LTT0_L1_overallSyst_x_StatUncert'
p394
(lp395
F75.33787679672241
aI-1
asS'L_x_hhttbb_Region_BMin0_incJet1_distMtW_J2_D_T2_SpcTauLH_Y2015_LTT0_L1_overallSyst_x_HistSyst'
p396
(lp397
F5.871937177143991
aI-1
asg20
(lp398
F6.072180609375209
aI-1
asS'L_x_ggZHbb_Region_BMin0_incJet1_distMtW_J2_D_T2_SpcTauLH_Y2015_LTT0_L1_overallSyst_x_StatUncert'
p399
(lp400
F5.80033688317053
aI-1
asS'L_x_Ztthf_Region_BMin0_incJet1_distMtW_J2_D_T2_SpcTauLH_Y2015_LTT0_L1_overallSyst_x_StatUncert'
p401
(lp402
F1218.1517563536763
aI-1
asS'L_x_diboson_Region_BMin0_incJet1_distMtW_J2_D_T2_SpcTauLH_Y2015_LTT0_L1_overallSyst_x_StatUncert'
p403
(lp404
F154.72486514691263
aI-1
asS'L_x_qqZHtautau_Region_BMin0_incJet1_distMtW_J2_D_T2_SpcTauLH_Y2015_LTT0_L1_overallSyst_x_StatUncert'
p405
(lp406
F8.475917427102104
aI-1
asg11
F98247.0
sS'L_x_Fake_Region_BMin0_incJet1_distMtW_J2_D_T2_SpcTauLH_Y2015_LTT0_L1_overallSyst_x_StatUncert'
p407
(lp408
F33912.160286426544
aI-1
asS'L_x_VBFHtautau_Region_BMin0_incJet1_distMtW_J2_D_T2_SpcTauLH_Y2015_LTT0_L1_overallSyst_x_StatUncert'
p409
(lp410
F1.4113844506209716
aI-1
asg44
(lp411
F101469.93826073103
aI-1
asS'L_x_DY_Region_BMin0_incJet1_distMtW_J2_D_T2_SpcTauLH_Y2015_LTT0_L1_overallSyst_x_StatUncert'
p412
(lp413
F14.817635864019394
aI-1
asS'L_x_qqZHbb_Region_BMin0_incJet1_distMtW_J2_D_T2_SpcTauLH_Y2015_LTT0_L1_overallSyst_x_StatUncert'
p414
(lp415
F17.67651651072083
aI-1
asS'L_x_ggFHtautau_Region_BMin0_incJet1_distMtW_J2_D_T2_SpcTauLH_Y2015_LTT0_L1_overallSyst_x_StatUncert'
p416
(lp417
F17.06006034463644
aI-1
asS'L_x_ggZHtautau_Region_BMin0_incJet1_distMtW_J2_D_T2_SpcTauLH_Y2015_LTT0_L1_overallSyst_x_StatUncert'
p418
(lp419
F2.8714924820233136
aI-1
asS'L_x_Zttlf_Region_BMin0_incJet1_distMtW_J2_D_T2_SpcTauLH_Y2015_LTT0_L1_overallSyst_x_StatUncert'
p420
(lp421
F91.57472322881222
aI-1
asS'L_x_WHbb_Region_BMin0_incJet1_distMtW_J2_D_T2_SpcTauLH_Y2015_LTT0_L1_overallSyst_x_StatUncert'
p422
(lp423
F6.9389627918135375
aI-1
assS'Region_BMin0_incJet1_Y2015_DZllbbCR_T2_L2_distmLL_J2'
p424
(dp425
S'L_x_ttbar_Region_BMin0_incJet1_Y2015_DZllbbCR_T2_L2_distmLL_J2_overallSyst_x_StatUncert'
p426
(lp427
F35331.80792236328
aI-1
asS'L_x_ttH_Region_BMin0_incJet1_Y2015_DZllbbCR_T2_L2_distmLL_J2_overallSyst_x_StatUncert'
p428
(lp429
F32.5517098903656
aI-1
asg30
(lp430
F83570.27368198533
aI-1
asS'L_x_W_Region_BMin0_incJet1_Y2015_DZllbbCR_T2_L2_distmLL_J2_overallSyst_x_StatUncert'
p431
(lp432
F21.92949586128816
aI-1
asS'L_x_Zhf_Region_BMin0_incJet1_Y2015_DZllbbCR_T2_L2_distmLL_J2_overallSyst_x_StatUncert'
p433
(lp434
F41173.87408828735
aI-1
asS'L_x_VBFHtautau_Region_BMin0_incJet1_Y2015_DZllbbCR_T2_L2_distmLL_J2_overallSyst_x_StatUncert'
p435
(lp436
F0.04144674597773701
aI-1
asS'L_x_DYtt_Region_BMin0_incJet1_Y2015_DZllbbCR_T2_L2_distmLL_J2_overallSyst_x_StatUncert'
p437
(lp438
F0.051879432052373886
aI-1
asg44
(lp439
F83570.27368198533
aI-1
asg20
(lp440
F0.0
aI-1
asg4
F0.0
sS'L_x_diboson_Region_BMin0_incJet1_Y2015_DZllbbCR_T2_L2_distmLL_J2_overallSyst_x_StatUncert'
p441
(lp442
F412.06668615341187
aI-1
asS'L_x_stop_Region_BMin0_incJet1_Y2015_DZllbbCR_T2_L2_distmLL_J2_overallSyst_x_StatUncert'
p443
(lp444
F1234.1913089752197
aI-1
asg3
F0.0
sS'L_x_DY_Region_BMin0_incJet1_Y2015_DZllbbCR_T2_L2_distmLL_J2_overallSyst_x_StatUncert'
p445
(lp446
F74.83714815974236
aI-1
asg7
(lp447
F0.0
aF-1.0
asS'L_x_Zlf_Region_BMin0_incJet1_Y2015_DZllbbCR_T2_L2_distmLL_J2_overallSyst_x_StatUncert'
p448
(lp449
F5288.921996116638
aI-1
asg11
F96032.0
ssS'Region_BMin0_incJet1_distdPhiHttMET_J2_D_T2_SpcTauLH_Y2015_LTT1_L1'
p450
(dp451
S'L_x_hhttbbVBFSM_Region_BMin0_incJet1_distdPhiHttMET_J2_D_T2_SpcTauLH_Y2015_LTT1_L1_overallSyst_x_HistSyst'
p452
(lp453
F0.05474276834948387
aI-1
asg3
F0.00021941271448577552
sS'L_x_Zhf_Region_BMin0_incJet1_distdPhiHttMET_J2_D_T2_SpcTauLH_Y2015_LTT1_L1_overallSyst_x_StatUncert'
p454
(lp455
F41.16097153963105
aI-1
asS'L_x_Wtt_Region_BMin0_incJet1_distdPhiHttMET_J2_D_T2_SpcTauLH_Y2015_LTT1_L1_overallSyst_x_StatUncert'
p456
(lp457
F2.740464344478611
aI-1
asg4
F0.01796622765450427
sS'L_x_W_Region_BMin0_incJet1_distdPhiHttMET_J2_D_T2_SpcTauLH_Y2015_LTT1_L1_overallSyst_x_StatUncert'
p458
(lp459
F1.3088553891905452
aI-1
asS'L_x_WHtautau_Region_BMin0_incJet1_distdPhiHttMET_J2_D_T2_SpcTauLH_Y2015_LTT1_L1_overallSyst_x_StatUncert'
p460
(lp461
F0.17175514320664317
aI-1
asg7
(lp462
F1.471456018840704
aF-1.0
asS'L_x_ggZHtautau_Region_BMin0_incJet1_distdPhiHttMET_J2_D_T2_SpcTauLH_Y2015_LTT1_L1_overallSyst_x_StatUncert'
p463
(lp464
F0.7385203825651093
aI-1
asS'L_x_qqZHbb_Region_BMin0_incJet1_distdPhiHttMET_J2_D_T2_SpcTauLH_Y2015_LTT1_L1_overallSyst_x_StatUncert'
p465
(lp466
F3.852370327001367
aI-1
asS'L_x_Zttlf_Region_BMin0_incJet1_distdPhiHttMET_J2_D_T2_SpcTauLH_Y2015_LTT1_L1_overallSyst_x_StatUncert'
p467
(lp468
F52.6162144037517
aI-1
asS'L_x_hhttbb_Region_BMin0_incJet1_distdPhiHttMET_J2_D_T2_SpcTauLH_Y2015_LTT1_L1_overallSyst_x_HistSyst'
p469
(lp470
F1.4167132504912199
aI-1
asg30
(lp471
F6706.338884185758
aI-1
asS'L_x_DYtt_Region_BMin0_incJet1_distdPhiHttMET_J2_D_T2_SpcTauLH_Y2015_LTT1_L1_overallSyst_x_StatUncert'
p472
(lp473
F0.2631887236712682
aI-1
asS'L_x_diboson_Region_BMin0_incJet1_distdPhiHttMET_J2_D_T2_SpcTauLH_Y2015_LTT1_L1_overallSyst_x_StatUncert'
p474
(lp475
F20.716871659709085
aI-1
asS'L_x_DY_Region_BMin0_incJet1_distdPhiHttMET_J2_D_T2_SpcTauLH_Y2015_LTT1_L1_overallSyst_x_StatUncert'
p476
(lp477
F0.628592738935243
aI-1
asS'L_x_qqZHtautau_Region_BMin0_incJet1_distdPhiHttMET_J2_D_T2_SpcTauLH_Y2015_LTT1_L1_overallSyst_x_StatUncert'
p478
(lp479
F2.17092922584607
aI-1
asS'L_x_ttH_Region_BMin0_incJet1_distdPhiHttMET_J2_D_T2_SpcTauLH_Y2015_LTT1_L1_overallSyst_x_StatUncert'
p480
(lp481
F10.969706475283301
aI-1
asS'L_x_ggFHtautau_Region_BMin0_incJet1_distdPhiHttMET_J2_D_T2_SpcTauLH_Y2015_LTT1_L1_overallSyst_x_StatUncert'
p482
(lp483
F4.541201411429068
aI-1
asS'L_x_VBFHtautau_Region_BMin0_incJet1_distdPhiHttMET_J2_D_T2_SpcTauLH_Y2015_LTT1_L1_overallSyst_x_StatUncert'
p484
(lp485
F0.3682563385386964
aI-1
asg20
(lp486
F1.471456018840704
aI-1
asS'L_x_ggZHbb_Region_BMin0_incJet1_distdPhiHttMET_J2_D_T2_SpcTauLH_Y2015_LTT1_L1_overallSyst_x_StatUncert'
p487
(lp488
F1.4563581783340593
aI-1
asS'L_x_Ztthf_Region_BMin0_incJet1_distdPhiHttMET_J2_D_T2_SpcTauLH_Y2015_LTT1_L1_overallSyst_x_StatUncert'
p489
(lp490
F404.29311842163077
aI-1
asS'L_x_WHbb_Region_BMin0_incJet1_distdPhiHttMET_J2_D_T2_SpcTauLH_Y2015_LTT1_L1_overallSyst_x_StatUncert'
p491
(lp492
F0.17295894400900513
aI-1
asg11
F6350.0
sS'L_x_stop_Region_BMin0_incJet1_distdPhiHttMET_J2_D_T2_SpcTauLH_Y2015_LTT1_L1_overallSyst_x_StatUncert'
p493
(lp494
F197.11063321099624
aI-1
asg44
(lp495
F6707.8103402046
aI-1
asS'L_x_Zlf_Region_BMin0_incJet1_distdPhiHttMET_J2_D_T2_SpcTauLH_Y2015_LTT1_L1_overallSyst_x_StatUncert'
p496
(lp497
F2.7310310562108606
aI-1
asS'L_x_ttbar_Region_BMin0_incJet1_distdPhiHttMET_J2_D_T2_SpcTauLH_Y2015_LTT1_L1_overallSyst_x_StatUncert'
p498
(lp499
F4206.901834233132
aI-1
asS'L_x_Fake_Region_BMin0_incJet1_distdPhiHttMET_J2_D_T2_SpcTauLH_Y2015_LTT1_L1_overallSyst_x_StatUncert'
p500
(lp501
F1751.425052038208
aI-1
assS'Region_BMin0_incJet1_distMETCent_J2_D_T2_SpcTauLH_Y2015_LTT0_L1'
p502
(dp503
g3
F5.968483645101331e-05
sS'L_x_WHtautau_Region_BMin0_incJet1_distMETCent_J2_D_T2_SpcTauLH_Y2015_LTT0_L1_overallSyst_x_StatUncert'
p504
(lp505
F0.7001967405667529
aI-1
asg4
F0.019036696827410077
sS'L_x_hhttbbVBFSM_Region_BMin0_incJet1_distMETCent_J2_D_T2_SpcTauLH_Y2015_LTT0_L1_overallSyst_x_HistSyst'
p506
(lp507
F0.2002486166311428
aI-1
asS'L_x_Zttlf_Region_BMin0_incJet1_distMETCent_J2_D_T2_SpcTauLH_Y2015_LTT0_L1_overallSyst_x_StatUncert'
p508
(lp509
F102.5576699078083
aI-1
asg7
(lp510
F6.0721864578081295
aF-1.0
asg30
(lp511
F101737.50685891404
aI-1
asS'L_x_VBFHtautau_Region_BMin0_incJet1_distMETCent_J2_D_T2_SpcTauLH_Y2015_LTT0_L1_overallSyst_x_StatUncert'
p512
(lp513
F1.4113844675011933
aI-1
asS'L_x_qqZHbb_Region_BMin0_incJet1_distMETCent_J2_D_T2_SpcTauLH_Y2015_LTT0_L1_overallSyst_x_StatUncert'
p514
(lp515
F17.677102476358414
aI-1
asS'L_x_Ztthf_Region_BMin0_incJet1_distMETCent_J2_D_T2_SpcTauLH_Y2015_LTT0_L1_overallSyst_x_StatUncert'
p516
(lp517
F1224.0652227401733
aI-1
asS'L_x_Fake_Region_BMin0_incJet1_distMETCent_J2_D_T2_SpcTauLH_Y2015_LTT0_L1_overallSyst_x_StatUncert'
p518
(lp519
F33912.65301513672
aI-1
asS'L_x_Wtt_Region_BMin0_incJet1_distMETCent_J2_D_T2_SpcTauLH_Y2015_LTT0_L1_overallSyst_x_StatUncert'
p520
(lp521
F5.357787109911442
aI-1
asS'L_x_ttH_Region_BMin0_incJet1_distMETCent_J2_D_T2_SpcTauLH_Y2015_LTT0_L1_overallSyst_x_StatUncert'
p522
(lp523
F92.99009346961975
aI-1
asS'L_x_ggFHtautau_Region_BMin0_incJet1_distMETCent_J2_D_T2_SpcTauLH_Y2015_LTT0_L1_overallSyst_x_StatUncert'
p524
(lp525
F17.0600605905056
aI-1
asS'L_x_qqZHtautau_Region_BMin0_incJet1_distMETCent_J2_D_T2_SpcTauLH_Y2015_LTT0_L1_overallSyst_x_StatUncert'
p526
(lp527
F8.475918292999268
aI-1
asg20
(lp528
F6.0721864578081295
aI-1
asS'L_x_ggZHbb_Region_BMin0_incJet1_distMETCent_J2_D_T2_SpcTauLH_Y2015_LTT0_L1_overallSyst_x_StatUncert'
p529
(lp530
F5.800336681306362
aI-1
asS'L_x_WHbb_Region_BMin0_incJet1_distMETCent_J2_D_T2_SpcTauLH_Y2015_LTT0_L1_overallSyst_x_StatUncert'
p531
(lp532
F6.941101536154747
aI-1
asS'L_x_diboson_Region_BMin0_incJet1_distMETCent_J2_D_T2_SpcTauLH_Y2015_LTT0_L1_overallSyst_x_StatUncert'
p533
(lp534
F154.76236236095428
aI-1
asS'L_x_hhttbb_Region_BMin0_incJet1_distMETCent_J2_D_T2_SpcTauLH_Y2015_LTT0_L1_overallSyst_x_HistSyst'
p535
(lp536
F5.871937841176987
aI-1
asS'L_x_DYtt_Region_BMin0_incJet1_distMETCent_J2_D_T2_SpcTauLH_Y2015_LTT0_L1_overallSyst_x_StatUncert'
p537
(lp538
F2.720595322549343
aI-1
asS'L_x_stop_Region_BMin0_incJet1_distMETCent_J2_D_T2_SpcTauLH_Y2015_LTT0_L1_overallSyst_x_StatUncert'
p539
(lp540
F3689.009452819824
aI-1
asS'L_x_Zlf_Region_BMin0_incJet1_distMETCent_J2_D_T2_SpcTauLH_Y2015_LTT0_L1_overallSyst_x_StatUncert'
p541
(lp542
F96.99001105129719
aI-1
asg11
F98449.0
sS'L_x_ttbar_Region_BMin0_incJet1_distMETCent_J2_D_T2_SpcTauLH_Y2015_LTT0_L1_overallSyst_x_StatUncert'
p543
(lp544
F61622.28875732422
aI-1
asg44
(lp545
F101743.57904537185
aI-1
asS'L_x_ggZHtautau_Region_BMin0_incJet1_distMETCent_J2_D_T2_SpcTauLH_Y2015_LTT0_L1_overallSyst_x_StatUncert'
p546
(lp547
F2.871492442674935
aI-1
asS'L_x_Zhf_Region_BMin0_incJet1_distMETCent_J2_D_T2_SpcTauLH_Y2015_LTT0_L1_overallSyst_x_StatUncert'
p548
(lp549
F683.001727104187
aI-1
asS'L_x_W_Region_BMin0_incJet1_distMETCent_J2_D_T2_SpcTauLH_Y2015_LTT0_L1_overallSyst_x_StatUncert'
p550
(lp551
F75.35493528842926
aI-1
asS'L_x_DY_Region_BMin0_incJet1_distMETCent_J2_D_T2_SpcTauLH_Y2015_LTT0_L1_overallSyst_x_StatUncert'
p552
(lp553
F14.817636050283909
aI-1
assS'Region_BMin0_incJet1_distmMMC_J2_D_T2_SpcTauLH_Y2015_LTT0_L1'
p554
(dp555
S'L_x_Fake_Region_BMin0_incJet1_distmMMC_J2_D_T2_SpcTauLH_Y2015_LTT0_L1_overallSyst_x_StatUncert'
p556
(lp557
F33905.676234960556
aI-1
asg3
F5.9714648193123435e-05
sS'L_x_ttbar_Region_BMin0_incJet1_distmMMC_J2_D_T2_SpcTauLH_Y2015_LTT0_L1_overallSyst_x_StatUncert'
p558
(lp559
F61601.27833652496
aI-1
asg4
F0.019041492362802656
sS'L_x_Zhf_Region_BMin0_incJet1_distmMMC_J2_D_T2_SpcTauLH_Y2015_LTT0_L1_overallSyst_x_StatUncert'
p560
(lp561
F682.0029921177775
aI-1
asS'L_x_qqZHtautau_Region_BMin0_incJet1_distmMMC_J2_D_T2_SpcTauLH_Y2015_LTT0_L1_overallSyst_x_StatUncert'
p562
(lp563
F8.475917987758294
aI-1
asg7
(lp564
F6.072213328184716
aF-1.0
asS'L_x_diboson_Region_BMin0_incJet1_distmMMC_J2_D_T2_SpcTauLH_Y2015_LTT0_L1_overallSyst_x_StatUncert'
p565
(lp566
F154.79568433389068
aI-1
asS'L_x_hhttbbVBFSM_Region_BMin0_incJet1_distmMMC_J2_D_T2_SpcTauLH_Y2015_LTT0_L1_overallSyst_x_HistSyst'
p567
(lp568
F0.20024342255373995
aI-1
asS'L_x_ggZHbb_Region_BMin0_incJet1_distmMMC_J2_D_T2_SpcTauLH_Y2015_LTT0_L1_overallSyst_x_StatUncert'
p569
(lp570
F5.80033702365472
aI-1
asg30
(lp571
F101687.16574443413
aI-1
asS'L_x_ggFHtautau_Region_BMin0_incJet1_distmMMC_J2_D_T2_SpcTauLH_Y2015_LTT0_L1_overallSyst_x_StatUncert'
p572
(lp573
F17.060061307623982
aI-1
asS'L_x_Zlf_Region_BMin0_incJet1_distmMMC_J2_D_T2_SpcTauLH_Y2015_LTT0_L1_overallSyst_x_StatUncert'
p574
(lp575
F89.50017637060955
aI-1
asS'L_x_stop_Region_BMin0_incJet1_distmMMC_J2_D_T2_SpcTauLH_Y2015_LTT0_L1_overallSyst_x_StatUncert'
p576
(lp577
F3686.413061261177
aI-1
asS'L_x_WHtautau_Region_BMin0_incJet1_distmMMC_J2_D_T2_SpcTauLH_Y2015_LTT0_L1_overallSyst_x_StatUncert'
p578
(lp579
F0.7001967499963939
aI-1
asS'L_x_DYtt_Region_BMin0_incJet1_distmMMC_J2_D_T2_SpcTauLH_Y2015_LTT0_L1_overallSyst_x_StatUncert'
p580
(lp581
F2.861059971153736
aI-1
asS'L_x_qqZHbb_Region_BMin0_incJet1_distmMMC_J2_D_T2_SpcTauLH_Y2015_LTT0_L1_overallSyst_x_StatUncert'
p582
(lp583
F17.676674220347195
aI-1
asS'L_x_WHbb_Region_BMin0_incJet1_distmMMC_J2_D_T2_SpcTauLH_Y2015_LTT0_L1_overallSyst_x_StatUncert'
p584
(lp585
F6.93540407839464
aI-1
asg20
(lp586
F6.072213328184716
aI-1
asS'L_x_Ztthf_Region_BMin0_incJet1_distmMMC_J2_D_T2_SpcTauLH_Y2015_LTT0_L1_overallSyst_x_StatUncert'
p587
(lp588
F1219.3517196346074
aI-1
asg11
F98411.0
sS'L_x_ttH_Region_BMin0_incJet1_distmMMC_J2_D_T2_SpcTauLH_Y2015_LTT0_L1_overallSyst_x_StatUncert'
p589
(lp590
F92.9035562146455
aI-1
asg44
(lp591
F101693.23795776232
aI-1
asS'L_x_W_Region_BMin0_incJet1_distmMMC_J2_D_T2_SpcTauLH_Y2015_LTT0_L1_overallSyst_x_StatUncert'
p592
(lp593
F75.17911461554468
aI-1
asS'L_x_DY_Region_BMin0_incJet1_distmMMC_J2_D_T2_SpcTauLH_Y2015_LTT0_L1_overallSyst_x_StatUncert'
p594
(lp595
F14.88537934049964
aI-1
asS'L_x_Wtt_Region_BMin0_incJet1_distmMMC_J2_D_T2_SpcTauLH_Y2015_LTT0_L1_overallSyst_x_StatUncert'
p596
(lp597
F5.357787013053894
aI-1
asS'L_x_Zttlf_Region_BMin0_incJet1_distmMMC_J2_D_T2_SpcTauLH_Y2015_LTT0_L1_overallSyst_x_StatUncert'
p598
(lp599
F96.0291738230735
aI-1
asS'L_x_ggZHtautau_Region_BMin0_incJet1_distmMMC_J2_D_T2_SpcTauLH_Y2015_LTT0_L1_overallSyst_x_StatUncert'
p600
(lp601
F2.871492456411943
aI-1
asS'L_x_hhttbb_Region_BMin0_incJet1_distmMMC_J2_D_T2_SpcTauLH_Y2015_LTT0_L1_overallSyst_x_HistSyst'
p602
(lp603
F5.871969905630976
aI-1
asS'L_x_VBFHtautau_Region_BMin0_incJet1_distmMMC_J2_D_T2_SpcTauLH_Y2015_LTT0_L1_overallSyst_x_StatUncert'
p604
(lp605
F1.4113844283856452
aI-1
assS'Region_BMin0_incJet1_distHt_J2_D_T2_SpcTauLH_Y2015_LTT1_L1'
p606
(dp607
g3
F0.00021860221743544
sS'L_x_Zttlf_Region_BMin0_incJet1_distHt_J2_D_T2_SpcTauLH_Y2015_LTT1_L1_overallSyst_x_StatUncert'
p608
(lp609
F50.551962569355965
aI-1
asS'L_x_DY_Region_BMin0_incJet1_distHt_J2_D_T2_SpcTauLH_Y2015_LTT1_L1_overallSyst_x_StatUncert'
p610
(lp611
F0.6285927183926105
aI-1
asg4
F0.017842071791910465
sS'L_x_Ztthf_Region_BMin0_incJet1_distHt_J2_D_T2_SpcTauLH_Y2015_LTT1_L1_overallSyst_x_StatUncert'
p612
(lp613
F401.35911053419113
aI-1
asg7
(lp614
F1.4565685530978953
aF-1.0
asS'L_x_ttH_Region_BMin0_incJet1_distHt_J2_D_T2_SpcTauLH_Y2015_LTT1_L1_overallSyst_x_StatUncert'
p615
(lp616
F10.535689758136868
aI-1
asg30
(lp617
F6663.100540268148
aI-1
asS'L_x_VBFHtautau_Region_BMin0_incJet1_distHt_J2_D_T2_SpcTauLH_Y2015_LTT1_L1_overallSyst_x_StatUncert'
p618
(lp619
F0.36825632269028574
aI-1
asS'L_x_ggZHtautau_Region_BMin0_incJet1_distHt_J2_D_T2_SpcTauLH_Y2015_LTT1_L1_overallSyst_x_StatUncert'
p620
(lp621
F0.7338563210796565
aI-1
asS'L_x_hhttbb_Region_BMin0_incJet1_distHt_J2_D_T2_SpcTauLH_Y2015_LTT1_L1_overallSyst_x_HistSyst'
p622
(lp623
F1.4027422182261944
aI-1
asS'L_x_W_Region_BMin0_incJet1_distHt_J2_D_T2_SpcTauLH_Y2015_LTT1_L1_overallSyst_x_StatUncert'
p624
(lp625
F1.3088553547859192
aI-1
asS'L_x_Fake_Region_BMin0_incJet1_distHt_J2_D_T2_SpcTauLH_Y2015_LTT1_L1_overallSyst_x_StatUncert'
p626
(lp627
F1748.3833338022232
aI-1
asS'L_x_Wtt_Region_BMin0_incJet1_distHt_J2_D_T2_SpcTauLH_Y2015_LTT1_L1_overallSyst_x_StatUncert'
p628
(lp629
F2.70006413012743
aI-1
asS'L_x_qqZHtautau_Region_BMin0_incJet1_distHt_J2_D_T2_SpcTauLH_Y2015_LTT1_L1_overallSyst_x_StatUncert'
p630
(lp631
F2.1469282410107553
aI-1
asS'L_x_hhttbbVBFSM_Region_BMin0_incJet1_distHt_J2_D_T2_SpcTauLH_Y2015_LTT1_L1_overallSyst_x_HistSyst'
p632
(lp633
F0.053826334871700965
aI-1
asS'L_x_DYtt_Region_BMin0_incJet1_distHt_J2_D_T2_SpcTauLH_Y2015_LTT1_L1_overallSyst_x_StatUncert'
p634
(lp635
F0.2631887272000313
aI-1
asg20
(lp636
F1.4565685530978953
aI-1
asS'L_x_WHtautau_Region_BMin0_incJet1_distHt_J2_D_T2_SpcTauLH_Y2015_LTT1_L1_overallSyst_x_StatUncert'
p637
(lp638
F0.1651983493939042
aI-1
asS'L_x_WHbb_Region_BMin0_incJet1_distHt_J2_D_T2_SpcTauLH_Y2015_LTT1_L1_overallSyst_x_StatUncert'
p639
(lp640
F0.1726731090748217
aI-1
asS'L_x_ttbar_Region_BMin0_incJet1_distHt_J2_D_T2_SpcTauLH_Y2015_LTT1_L1_overallSyst_x_StatUncert'
p641
(lp642
F4174.7167592048645
aI-1
asS'L_x_Zhf_Region_BMin0_incJet1_distHt_J2_D_T2_SpcTauLH_Y2015_LTT1_L1_overallSyst_x_StatUncert'
p643
(lp644
F39.983195861801505
aI-1
asS'L_x_stop_Region_BMin0_incJet1_distHt_J2_D_T2_SpcTauLH_Y2015_LTT1_L1_overallSyst_x_StatUncert'
p645
(lp646
F196.182443626225
aI-1
asS'L_x_ggFHtautau_Region_BMin0_incJet1_distHt_J2_D_T2_SpcTauLH_Y2015_LTT1_L1_overallSyst_x_StatUncert'
p647
(lp648
F4.525367798283696
aI-1
asS'L_x_Zlf_Region_BMin0_incJet1_distHt_J2_D_T2_SpcTauLH_Y2015_LTT1_L1_overallSyst_x_StatUncert'
p649
(lp650
F2.7148421304300427
aI-1
asS'L_x_qqZHbb_Region_BMin0_incJet1_distHt_J2_D_T2_SpcTauLH_Y2015_LTT1_L1_overallSyst_x_StatUncert'
p651
(lp652
F3.825534148083534
aI-1
asg11
F6323.0
sg44
(lp653
F6664.5571088212455
aI-1
asS'L_x_ggZHbb_Region_BMin0_incJet1_distHt_J2_D_T2_SpcTauLH_Y2015_LTT1_L1_overallSyst_x_StatUncert'
p654
(lp655
F1.4506069645285606
aI-1
asS'L_x_diboson_Region_BMin0_incJet1_distHt_J2_D_T2_SpcTauLH_Y2015_LTT1_L1_overallSyst_x_StatUncert'
p656
(lp657
F20.384080596268177
aI-1
assS'Region_BMin0_incJet1_distMhh_J2_D_T2_SpcTauLH_Y2015_LTT0_L1'
p658
(dp659
g3
F5.9662113722626306e-05
sS'L_x_DYtt_Region_BMin0_incJet1_distMhh_J2_D_T2_SpcTauLH_Y2015_LTT0_L1_overallSyst_x_StatUncert'
p660
(lp661
F2.861060231924057
aI-1
asS'L_x_diboson_Region_BMin0_incJet1_distMhh_J2_D_T2_SpcTauLH_Y2015_LTT0_L1_overallSyst_x_StatUncert'
p662
(lp663
F154.40290923416615
aI-1
asS'L_x_Fake_Region_BMin0_incJet1_distMhh_J2_D_T2_SpcTauLH_Y2015_LTT0_L1_overallSyst_x_StatUncert'
p664
(lp665
F33898.86266851425
aI-1
asg4
F0.0190253787505318
sg7
(lp666
F6.067278036498465
aF-1.0
asS'L_x_WHbb_Region_BMin0_incJet1_distMhh_J2_D_T2_SpcTauLH_Y2015_LTT0_L1_overallSyst_x_StatUncert'
p667
(lp668
F6.940466374042444
aI-1
asS'L_x_hhttbb_Region_BMin0_incJet1_distMhh_J2_D_T2_SpcTauLH_Y2015_LTT0_L1_overallSyst_x_HistSyst'
p669
(lp670
F5.86855355463922
aI-1
asg30
(lp671
F101693.98396955396
aI-1
asS'L_x_Zlf_Region_BMin0_incJet1_distMhh_J2_D_T2_SpcTauLH_Y2015_LTT0_L1_overallSyst_x_StatUncert'
p672
(lp673
F89.98276910558343
aI-1
asS'L_x_stop_Region_BMin0_incJet1_distMhh_J2_D_T2_SpcTauLH_Y2015_LTT0_L1_overallSyst_x_StatUncert'
p674
(lp675
F3688.912606447935
aI-1
asS'L_x_Zhf_Region_BMin0_incJet1_distMhh_J2_D_T2_SpcTauLH_Y2015_LTT0_L1_overallSyst_x_StatUncert'
p676
(lp677
F676.4392984360456
aI-1
asS'L_x_ggZHtautau_Region_BMin0_incJet1_distMhh_J2_D_T2_SpcTauLH_Y2015_LTT0_L1_overallSyst_x_StatUncert'
p678
(lp679
F2.871492496691644
aI-1
asS'L_x_ttH_Region_BMin0_incJet1_distMhh_J2_D_T2_SpcTauLH_Y2015_LTT0_L1_overallSyst_x_StatUncert'
p680
(lp681
F92.97700295993127
aI-1
asS'L_x_qqZHbb_Region_BMin0_incJet1_distMhh_J2_D_T2_SpcTauLH_Y2015_LTT0_L1_overallSyst_x_StatUncert'
p682
(lp683
F17.660716616548598
aI-1
asS'L_x_VBFHtautau_Region_BMin0_incJet1_distMhh_J2_D_T2_SpcTauLH_Y2015_LTT0_L1_overallSyst_x_StatUncert'
p684
(lp685
F1.3864120546495542
aI-1
asS'L_x_W_Region_BMin0_incJet1_distMhh_J2_D_T2_SpcTauLH_Y2015_LTT0_L1_overallSyst_x_StatUncert'
p686
(lp687
F75.08604694157839
aI-1
asg20
(lp688
F6.067278036498465
aI-1
asS'L_x_Wtt_Region_BMin0_incJet1_distMhh_J2_D_T2_SpcTauLH_Y2015_LTT0_L1_overallSyst_x_StatUncert'
p689
(lp690
F5.34854331612587
aI-1
asS'L_x_DY_Region_BMin0_incJet1_distMhh_J2_D_T2_SpcTauLH_Y2015_LTT0_L1_overallSyst_x_StatUncert'
p691
(lp692
F14.81763564562425
aI-1
asS'L_x_qqZHtautau_Region_BMin0_incJet1_distMhh_J2_D_T2_SpcTauLH_Y2015_LTT0_L1_overallSyst_x_StatUncert'
p693
(lp694
F8.472461521159858
aI-1
asS'L_x_hhttbbVBFSM_Region_BMin0_incJet1_distMhh_J2_D_T2_SpcTauLH_Y2015_LTT0_L1_overallSyst_x_HistSyst'
p695
(lp696
F0.1987244818592444
aI-1
asg11
F98412.0
sS'L_x_ggZHbb_Region_BMin0_incJet1_distMhh_J2_D_T2_SpcTauLH_Y2015_LTT0_L1_overallSyst_x_StatUncert'
p697
(lp698
F5.797604864579625
aI-1
asS'L_x_WHtautau_Region_BMin0_incJet1_distMhh_J2_D_T2_SpcTauLH_Y2015_LTT0_L1_overallSyst_x_StatUncert'
p699
(lp700
F0.7001967523247004
aI-1
asS'L_x_ggFHtautau_Region_BMin0_incJet1_distMhh_J2_D_T2_SpcTauLH_Y2015_LTT0_L1_overallSyst_x_StatUncert'
p701
(lp702
F16.882063472643495
aI-1
asS'L_x_Zttlf_Region_BMin0_incJet1_distMhh_J2_D_T2_SpcTauLH_Y2015_LTT0_L1_overallSyst_x_StatUncert'
p703
(lp704
F102.32261245697737
aI-1
asg44
(lp705
F101700.05124759045
aI-1
asS'L_x_ttbar_Region_BMin0_incJet1_distMhh_J2_D_T2_SpcTauLH_Y2015_LTT0_L1_overallSyst_x_StatUncert'
p706
(lp707
F61621.04448647797
aI-1
asS'L_x_Ztthf_Region_BMin0_incJet1_distMhh_J2_D_T2_SpcTauLH_Y2015_LTT0_L1_overallSyst_x_StatUncert'
p708
(lp709
F1210.2149156332016
aI-1
assS'Region_BMin0_incJet1_distDRTauTau_J2_D_T2_SpcTauLH_Y2015_LTT0_L1'
p710
(dp711
g3
F5.970909768861719e-05
sS'L_x_ggFHtautau_Region_BMin0_incJet1_distDRTauTau_J2_D_T2_SpcTauLH_Y2015_LTT0_L1_overallSyst_x_StatUncert'
p712
(lp713
F17.060060752555728
aI-1
asS'L_x_ggZHbb_Region_BMin0_incJet1_distDRTauTau_J2_D_T2_SpcTauLH_Y2015_LTT0_L1_overallSyst_x_StatUncert'
p714
(lp715
F5.800336911255727
aI-1
asS'L_x_DYtt_Region_BMin0_incJet1_distDRTauTau_J2_D_T2_SpcTauLH_Y2015_LTT0_L1_overallSyst_x_StatUncert'
p716
(lp717
F2.8610601499676704
aI-1
asS'L_x_hhttbb_Region_BMin0_incJet1_distDRTauTau_J2_D_T2_SpcTauLH_Y2015_LTT0_L1_overallSyst_x_HistSyst'
p718
(lp719
F5.871834581659641
aI-1
asS'L_x_qqZHtautau_Region_BMin0_incJet1_distDRTauTau_J2_D_T2_SpcTauLH_Y2015_LTT0_L1_overallSyst_x_StatUncert'
p720
(lp721
F8.475917901843786
aI-1
asS'L_x_WHtautau_Region_BMin0_incJet1_distDRTauTau_J2_D_T2_SpcTauLH_Y2015_LTT0_L1_overallSyst_x_StatUncert'
p722
(lp723
F0.7001967509277165
aI-1
asS'L_x_ttH_Region_BMin0_incJet1_distDRTauTau_J2_D_T2_SpcTauLH_Y2015_LTT0_L1_overallSyst_x_StatUncert'
p724
(lp725
F92.98131291754544
aI-1
asg7
(lp726
F6.072083206458046
aF-1.0
asS'L_x_diboson_Region_BMin0_incJet1_distDRTauTau_J2_D_T2_SpcTauLH_Y2015_LTT0_L1_overallSyst_x_StatUncert'
p727
(lp728
F154.51453429460526
aI-1
asg30
(lp729
F101694.43923142075
aI-1
asS'L_x_Zttlf_Region_BMin0_incJet1_distDRTauTau_J2_D_T2_SpcTauLH_Y2015_LTT0_L1_overallSyst_x_StatUncert'
p730
(lp731
F101.39264144003391
aI-1
asS'L_x_Zhf_Region_BMin0_incJet1_distDRTauTau_J2_D_T2_SpcTauLH_Y2015_LTT0_L1_overallSyst_x_StatUncert'
p732
(lp733
F681.1796933710575
aI-1
asS'L_x_ggZHtautau_Region_BMin0_incJet1_distDRTauTau_J2_D_T2_SpcTauLH_Y2015_LTT0_L1_overallSyst_x_StatUncert'
p734
(lp735
F2.871492482954636
aI-1
asS'L_x_DY_Region_BMin0_incJet1_distDRTauTau_J2_D_T2_SpcTauLH_Y2015_LTT0_L1_overallSyst_x_StatUncert'
p736
(lp737
F15.051801722496748
aI-1
asS'L_x_VBFHtautau_Region_BMin0_incJet1_distDRTauTau_J2_D_T2_SpcTauLH_Y2015_LTT0_L1_overallSyst_x_StatUncert'
p738
(lp739
F1.4113844382809475
aI-1
asg20
(lp740
F6.072083206458046
aI-1
asS'L_x_hhttbbVBFSM_Region_BMin0_incJet1_distDRTauTau_J2_D_T2_SpcTauLH_Y2015_LTT0_L1_overallSyst_x_HistSyst'
p741
(lp742
F0.20024862479840522
aI-1
asg4
F0.01904040342516146
sS'L_x_WHbb_Region_BMin0_incJet1_distDRTauTau_J2_D_T2_SpcTauLH_Y2015_LTT0_L1_overallSyst_x_StatUncert'
p743
(lp744
F6.922546043875627
aI-1
asg11
F98413.0
sS'L_x_Wtt_Region_BMin0_incJet1_distDRTauTau_J2_D_T2_SpcTauLH_Y2015_LTT0_L1_overallSyst_x_StatUncert'
p745
(lp746
F5.357787173241377
aI-1
asS'L_x_W_Region_BMin0_incJet1_distDRTauTau_J2_D_T2_SpcTauLH_Y2015_LTT0_L1_overallSyst_x_StatUncert'
p747
(lp748
F75.35493606328964
aI-1
asS'L_x_Zlf_Region_BMin0_incJet1_distDRTauTau_J2_D_T2_SpcTauLH_Y2015_LTT0_L1_overallSyst_x_StatUncert'
p749
(lp750
F90.00705474056304
aI-1
asg44
(lp751
F101700.5113146272
aI-1
asS'L_x_stop_Region_BMin0_incJet1_distDRTauTau_J2_D_T2_SpcTauLH_Y2015_LTT0_L1_overallSyst_x_StatUncert'
p752
(lp753
F3686.4765098690987
aI-1
asS'L_x_qqZHbb_Region_BMin0_incJet1_distDRTauTau_J2_D_T2_SpcTauLH_Y2015_LTT0_L1_overallSyst_x_StatUncert'
p754
(lp755
F17.676704876328586
aI-1
asS'L_x_Ztthf_Region_BMin0_incJet1_distDRTauTau_J2_D_T2_SpcTauLH_Y2015_LTT0_L1_overallSyst_x_StatUncert'
p756
(lp757
F1224.2209293320775
aI-1
asS'L_x_Fake_Region_BMin0_incJet1_distDRTauTau_J2_D_T2_SpcTauLH_Y2015_LTT0_L1_overallSyst_x_StatUncert'
p758
(lp759
F33887.57286405563
aI-1
asS'L_x_ttbar_Region_BMin0_incJet1_distDRTauTau_J2_D_T2_SpcTauLH_Y2015_LTT0_L1_overallSyst_x_StatUncert'
p760
(lp761
F61616.54946613312
aI-1
assS'Region_BMin0_incJet1_distMET_J2_D_T2_SpcTauLH_Y2015_LTT0_L1'
p762
(dp763
S'L_x_DY_Region_BMin0_incJet1_distMET_J2_D_T2_SpcTauLH_Y2015_LTT0_L1_overallSyst_x_StatUncert'
p764
(lp765
F14.817635782063007
aI-1
asg3
F5.9698171091585727e-05
sS'L_x_stop_Region_BMin0_incJet1_distMET_J2_D_T2_SpcTauLH_Y2015_LTT0_L1_overallSyst_x_StatUncert'
p766
(lp767
F3687.847157910466
aI-1
asS'L_x_Zlf_Region_BMin0_incJet1_distMET_J2_D_T2_SpcTauLH_Y2015_LTT0_L1_overallSyst_x_StatUncert'
p768
(lp769
F87.31271404633299
aI-1
asS'L_x_Zhf_Region_BMin0_incJet1_distMET_J2_D_T2_SpcTauLH_Y2015_LTT0_L1_overallSyst_x_StatUncert'
p770
(lp771
F677.710754125379
aI-1
asg4
F0.019037765564728762
sS'L_x_WHtautau_Region_BMin0_incJet1_distMET_J2_D_T2_SpcTauLH_Y2015_LTT0_L1_overallSyst_x_StatUncert'
p772
(lp773
F0.7001967222895473
aI-1
asS'L_x_hhttbb_Region_BMin0_incJet1_distMET_J2_D_T2_SpcTauLH_Y2015_LTT0_L1_overallSyst_x_HistSyst'
p774
(lp775
F5.8713563465862535
aI-1
asS'L_x_DYtt_Region_BMin0_incJet1_distMET_J2_D_T2_SpcTauLH_Y2015_LTT0_L1_overallSyst_x_StatUncert'
p776
(lp777
F2.7914929017424583
aI-1
asS'L_x_Wtt_Region_BMin0_incJet1_distMET_J2_D_T2_SpcTauLH_Y2015_LTT0_L1_overallSyst_x_StatUncert'
p778
(lp779
F5.357787397690117
aI-1
asg7
(lp780
F6.071511871590701
aF-1.0
asS'L_x_W_Region_BMin0_incJet1_distMET_J2_D_T2_SpcTauLH_Y2015_LTT0_L1_overallSyst_x_StatUncert'
p781
(lp782
F75.35493557062
aI-1
asS'L_x_hhttbbVBFSM_Region_BMin0_incJet1_distMET_J2_D_T2_SpcTauLH_Y2015_LTT0_L1_overallSyst_x_HistSyst'
p783
(lp784
F0.20015552500444755
aI-1
asS'L_x_ggFHtautau_Region_BMin0_incJet1_distMET_J2_D_T2_SpcTauLH_Y2015_LTT0_L1_overallSyst_x_StatUncert'
p785
(lp786
F17.060061015188694
aI-1
asg30
(lp787
F101703.48204262595
aI-1
asS'L_x_Fake_Region_BMin0_incJet1_distMET_J2_D_T2_SpcTauLH_Y2015_LTT0_L1_overallSyst_x_StatUncert'
p788
(lp789
F33911.82154524326
aI-1
asS'L_x_ggZHtautau_Region_BMin0_incJet1_distMET_J2_D_T2_SpcTauLH_Y2015_LTT0_L1_overallSyst_x_StatUncert'
p790
(lp791
F2.871492496691644
aI-1
asS'L_x_ttH_Region_BMin0_incJet1_distMET_J2_D_T2_SpcTauLH_Y2015_LTT0_L1_overallSyst_x_StatUncert'
p792
(lp793
F92.96151282009669
aI-1
asS'L_x_ttbar_Region_BMin0_incJet1_distMET_J2_D_T2_SpcTauLH_Y2015_LTT0_L1_overallSyst_x_StatUncert'
p794
(lp795
F61616.48870265484
aI-1
asS'L_x_Ztthf_Region_BMin0_incJet1_distMET_J2_D_T2_SpcTauLH_Y2015_LTT0_L1_overallSyst_x_StatUncert'
p796
(lp797
F1218.0799349602312
aI-1
asS'L_x_diboson_Region_BMin0_incJet1_distMET_J2_D_T2_SpcTauLH_Y2015_LTT0_L1_overallSyst_x_StatUncert'
p798
(lp799
F154.70937176933512
aI-1
asS'L_x_qqZHtautau_Region_BMin0_incJet1_distMET_J2_D_T2_SpcTauLH_Y2015_LTT0_L1_overallSyst_x_StatUncert'
p800
(lp801
F8.475917806150392
aI-1
asS'L_x_Zttlf_Region_BMin0_incJet1_distMET_J2_D_T2_SpcTauLH_Y2015_LTT0_L1_overallSyst_x_StatUncert'
p802
(lp803
F97.29345070570707
aI-1
asg20
(lp804
F6.071511871590701
aI-1
asg11
F98444.0
sg44
(lp805
F101709.55355449754
aI-1
asS'L_x_WHbb_Region_BMin0_incJet1_distMET_J2_D_T2_SpcTauLH_Y2015_LTT0_L1_overallSyst_x_StatUncert'
p806
(lp807
F6.9392538531683385
aI-1
asS'L_x_ggZHbb_Region_BMin0_incJet1_distMET_J2_D_T2_SpcTauLH_Y2015_LTT0_L1_overallSyst_x_StatUncert'
p808
(lp809
F5.800337451846644
aI-1
asS'L_x_VBFHtautau_Region_BMin0_incJet1_distMET_J2_D_T2_SpcTauLH_Y2015_LTT0_L1_overallSyst_x_StatUncert'
p810
(lp811
F1.4113844475359656
aI-1
asS'L_x_qqZHbb_Region_BMin0_incJet1_distMET_J2_D_T2_SpcTauLH_Y2015_LTT0_L1_overallSyst_x_StatUncert'
p812
(lp813
F17.67640294530429
aI-1
assS'Region_BMin0_incJet1_distDRTauTau_J2_D_T2_SpcTauLH_Y2015_LTT1_L1'
p814
(dp815
S'L_x_Zlf_Region_BMin0_incJet1_distDRTauTau_J2_D_T2_SpcTauLH_Y2015_LTT1_L1_overallSyst_x_StatUncert'
p816
(lp817
F2.221746902912855
aI-1
asS'L_x_stop_Region_BMin0_incJet1_distDRTauTau_J2_D_T2_SpcTauLH_Y2015_LTT1_L1_overallSyst_x_StatUncert'
p818
(lp819
F197.06913462281227
aI-1
asg3
F0.00021955475068745646
sS'L_x_hhttbb_Region_BMin0_incJet1_distDRTauTau_J2_D_T2_SpcTauLH_Y2015_LTT1_L1_overallSyst_x_HistSyst'
p820
(lp821
F1.4167132836846577
aI-1
asS'L_x_Wtt_Region_BMin0_incJet1_distDRTauTau_J2_D_T2_SpcTauLH_Y2015_LTT1_L1_overallSyst_x_StatUncert'
p822
(lp823
F2.762010607868433
aI-1
asS'L_x_Zhf_Region_BMin0_incJet1_distDRTauTau_J2_D_T2_SpcTauLH_Y2015_LTT1_L1_overallSyst_x_StatUncert'
p824
(lp825
F41.46189045161009
aI-1
asg4
F0.01797200883836947
sS'L_x_diboson_Region_BMin0_incJet1_distDRTauTau_J2_D_T2_SpcTauLH_Y2015_LTT1_L1_overallSyst_x_StatUncert'
p826
(lp827
F20.74365682248026
aI-1
asg7
(lp828
F1.4714508128145098
aF-1.0
asS'L_x_qqZHtautau_Region_BMin0_incJet1_distDRTauTau_J2_D_T2_SpcTauLH_Y2015_LTT1_L1_overallSyst_x_StatUncert'
p829
(lp830
F2.170929177198559
aI-1
asS'L_x_WHtautau_Region_BMin0_incJet1_distDRTauTau_J2_D_T2_SpcTauLH_Y2015_LTT1_L1_overallSyst_x_StatUncert'
p831
(lp832
F0.1717551415786147
aI-1
asS'L_x_DY_Region_BMin0_incJet1_distDRTauTau_J2_D_T2_SpcTauLH_Y2015_LTT1_L1_overallSyst_x_StatUncert'
p833
(lp834
F0.6285927221179008
aI-1
asg30
(lp835
F6701.976651414705
aI-1
asS'L_x_ttbar_Region_BMin0_incJet1_distDRTauTau_J2_D_T2_SpcTauLH_Y2015_LTT1_L1_overallSyst_x_StatUncert'
p836
(lp837
F4205.628758192062
aI-1
asS'L_x_DYtt_Region_BMin0_incJet1_distDRTauTau_J2_D_T2_SpcTauLH_Y2015_LTT1_L1_overallSyst_x_StatUncert'
p838
(lp839
F0.2631887197494507
aI-1
asS'L_x_W_Region_BMin0_incJet1_distDRTauTau_J2_D_T2_SpcTauLH_Y2015_LTT1_L1_overallSyst_x_StatUncert'
p840
(lp841
F1.3088553436100483
aI-1
asS'L_x_Fake_Region_BMin0_incJet1_distDRTauTau_J2_D_T2_SpcTauLH_Y2015_LTT1_L1_overallSyst_x_StatUncert'
p842
(lp843
F1750.116412460804
aI-1
asS'L_x_hhttbbVBFSM_Region_BMin0_incJet1_distDRTauTau_J2_D_T2_SpcTauLH_Y2015_LTT1_L1_overallSyst_x_HistSyst'
p844
(lp845
F0.05473752912985219
aI-1
asS'L_x_ggZHtautau_Region_BMin0_incJet1_distDRTauTau_J2_D_T2_SpcTauLH_Y2015_LTT1_L1_overallSyst_x_StatUncert'
p846
(lp847
F0.7385203507728875
aI-1
asS'L_x_Zttlf_Region_BMin0_incJet1_distDRTauTau_J2_D_T2_SpcTauLH_Y2015_LTT1_L1_overallSyst_x_StatUncert'
p848
(lp849
F50.22130490699783
aI-1
asg20
(lp850
F1.4714508128145098
aI-1
asS'L_x_qqZHbb_Region_BMin0_incJet1_distDRTauTau_J2_D_T2_SpcTauLH_Y2015_LTT1_L1_overallSyst_x_StatUncert'
p851
(lp852
F3.852370504057035
aI-1
asS'L_x_Ztthf_Region_BMin0_incJet1_distDRTauTau_J2_D_T2_SpcTauLH_Y2015_LTT1_L1_overallSyst_x_StatUncert'
p853
(lp854
F405.1134350448847
aI-1
asS'L_x_VBFHtautau_Region_BMin0_incJet1_distDRTauTau_J2_D_T2_SpcTauLH_Y2015_LTT1_L1_overallSyst_x_StatUncert'
p855
(lp856
F0.36825632071122527
aI-1
asS'L_x_WHbb_Region_BMin0_incJet1_distDRTauTau_J2_D_T2_SpcTauLH_Y2015_LTT1_L1_overallSyst_x_StatUncert'
p857
(lp858
F0.17247516207862645
aI-1
asg11
F6344.0
sS'L_x_ggFHtautau_Region_BMin0_incJet1_distDRTauTau_J2_D_T2_SpcTauLH_Y2015_LTT1_L1_overallSyst_x_StatUncert'
p859
(lp860
F4.5412011705338955
aI-1
asg44
(lp861
F6703.4481022275195
aI-1
asS'L_x_ggZHbb_Region_BMin0_incJet1_distDRTauTau_J2_D_T2_SpcTauLH_Y2015_LTT1_L1_overallSyst_x_StatUncert'
p862
(lp863
F1.4562286318396218
aI-1
asS'L_x_ttH_Region_BMin0_incJet1_distDRTauTau_J2_D_T2_SpcTauLH_Y2015_LTT1_L1_overallSyst_x_StatUncert'
p864
(lp865
F10.965928158024326
aI-1
assS'Region_BMin0_incJet1_distdPtLepTau_J2_D_T2_SpcTauLH_Y2015_LTT0_L1'
p866
(dp867
g3
F5.942249464972538e-05
sg4
F0.018944979857950114
sS'L_x_VBFHtautau_Region_BMin0_incJet1_distdPtLepTau_J2_D_T2_SpcTauLH_Y2015_LTT0_L1_overallSyst_x_StatUncert'
p868
(lp869
F1.4062523118918762
aI-1
asS'L_x_WHtautau_Region_BMin0_incJet1_distdPtLepTau_J2_D_T2_SpcTauLH_Y2015_LTT0_L1_overallSyst_x_StatUncert'
p870
(lp871
F0.7001967336982489
aI-1
asg7
(lp872
F6.0403655449990765
aF-1.0
asS'L_x_DY_Region_BMin0_incJet1_distdPtLepTau_J2_D_T2_SpcTauLH_Y2015_LTT0_L1_overallSyst_x_StatUncert'
p873
(lp874
F14.817635219544172
aI-1
asg30
(lp875
F101651.16056814676
aI-1
asS'L_x_Zhf_Region_BMin0_incJet1_distdPtLepTau_J2_D_T2_SpcTauLH_Y2015_LTT0_L1_overallSyst_x_StatUncert'
p876
(lp877
F676.9560930579901
aI-1
asS'L_x_ttbar_Region_BMin0_incJet1_distdPtLepTau_J2_D_T2_SpcTauLH_Y2015_LTT0_L1_overallSyst_x_StatUncert'
p878
(lp879
F61593.56447792053
aI-1
asS'L_x_Zlf_Region_BMin0_incJet1_distdPtLepTau_J2_D_T2_SpcTauLH_Y2015_LTT0_L1_overallSyst_x_StatUncert'
p880
(lp881
F89.8610841948539
aI-1
asS'L_x_stop_Region_BMin0_incJet1_distdPtLepTau_J2_D_T2_SpcTauLH_Y2015_LTT0_L1_overallSyst_x_StatUncert'
p882
(lp883
F3678.998238325119
aI-1
asS'L_x_ggZHbb_Region_BMin0_incJet1_distdPtLepTau_J2_D_T2_SpcTauLH_Y2015_LTT0_L1_overallSyst_x_StatUncert'
p884
(lp885
F5.791075541812461
aI-1
asS'L_x_ggFHtautau_Region_BMin0_incJet1_distdPtLepTau_J2_D_T2_SpcTauLH_Y2015_LTT0_L1_overallSyst_x_StatUncert'
p886
(lp887
F16.979244645684958
aI-1
asS'L_x_ggZHtautau_Region_BMin0_incJet1_distdPtLepTau_J2_D_T2_SpcTauLH_Y2015_LTT0_L1_overallSyst_x_StatUncert'
p888
(lp889
F2.864003151189536
aI-1
asS'L_x_DYtt_Region_BMin0_incJet1_distdPtLepTau_J2_D_T2_SpcTauLH_Y2015_LTT0_L1_overallSyst_x_StatUncert'
p890
(lp891
F2.720595322549343
aI-1
asg20
(lp892
F6.0403655449990765
aI-1
asS'L_x_W_Region_BMin0_incJet1_distdPtLepTau_J2_D_T2_SpcTauLH_Y2015_LTT0_L1_overallSyst_x_StatUncert'
p893
(lp894
F75.2114499649033
aI-1
asS'L_x_hhttbbVBFSM_Region_BMin0_incJet1_distdPtLepTau_J2_D_T2_SpcTauLH_Y2015_LTT0_L1_overallSyst_x_HistSyst'
p895
(lp896
F0.19928530886681983
aI-1
asS'L_x_Wtt_Region_BMin0_incJet1_distdPtLepTau_J2_D_T2_SpcTauLH_Y2015_LTT0_L1_overallSyst_x_StatUncert'
p897
(lp898
F5.274241150356829
aI-1
asS'L_x_WHbb_Region_BMin0_incJet1_distdPtLepTau_J2_D_T2_SpcTauLH_Y2015_LTT0_L1_overallSyst_x_StatUncert'
p899
(lp900
F6.903420902053767
aI-1
asS'L_x_qqZHbb_Region_BMin0_incJet1_distdPtLepTau_J2_D_T2_SpcTauLH_Y2015_LTT0_L1_overallSyst_x_StatUncert'
p901
(lp902
F17.620311315869913
aI-1
asS'L_x_Fake_Region_BMin0_incJet1_distdPtLepTau_J2_D_T2_SpcTauLH_Y2015_LTT0_L1_overallSyst_x_StatUncert'
p903
(lp904
F33894.74200248718
aI-1
asg11
F98399.0
sS'L_x_hhttbb_Region_BMin0_incJet1_distdPtLepTau_J2_D_T2_SpcTauLH_Y2015_LTT0_L1_overallSyst_x_HistSyst'
p905
(lp906
F5.841080236132257
aI-1
asS'L_x_Ztthf_Region_BMin0_incJet1_distdPtLepTau_J2_D_T2_SpcTauLH_Y2015_LTT0_L1_overallSyst_x_StatUncert'
p907
(lp908
F1216.1425327658653
aI-1
asS'L_x_qqZHtautau_Region_BMin0_incJet1_distdPtLepTau_J2_D_T2_SpcTauLH_Y2015_LTT0_L1_overallSyst_x_StatUncert'
p909
(lp910
F8.440786899300292
aI-1
asg44
(lp911
F101657.20093369175
aI-1
asS'L_x_diboson_Region_BMin0_incJet1_distdPtLepTau_J2_D_T2_SpcTauLH_Y2015_LTT0_L1_overallSyst_x_StatUncert'
p912
(lp913
F154.1436906531453
aI-1
asS'L_x_Zttlf_Region_BMin0_incJet1_distdPtLepTau_J2_D_T2_SpcTauLH_Y2015_LTT0_L1_overallSyst_x_StatUncert'
p914
(lp915
F95.33180692186579
aI-1
asS'L_x_ttH_Region_BMin0_incJet1_distdPtLepTau_J2_D_T2_SpcTauLH_Y2015_LTT0_L1_overallSyst_x_StatUncert'
p916
(lp917
F92.69142866134644
aI-1
assS'Region_BMin0_incJet1_distpTB2_J2_D_T2_SpcTauLH_Y2015_LTT0_L1'
p918
(dp919
g3
F5.9704542267888365e-05
sS'L_x_Fake_Region_BMin0_incJet1_distpTB2_J2_D_T2_SpcTauLH_Y2015_LTT0_L1_overallSyst_x_StatUncert'
p920
(lp921
F33912.23206048459
aI-1
asS'L_x_DY_Region_BMin0_incJet1_distpTB2_J2_D_T2_SpcTauLH_Y2015_LTT0_L1_overallSyst_x_StatUncert'
p922
(lp923
F14.817635335028172
aI-1
asS'L_x_diboson_Region_BMin0_incJet1_distpTB2_J2_D_T2_SpcTauLH_Y2015_LTT0_L1_overallSyst_x_StatUncert'
p924
(lp925
F154.78689089603722
aI-1
asg7
(lp926
F6.07223863292711
aF-1.0
asg4
F0.019039920801152858
sg30
(lp927
F101704.80171645194
aI-1
asS'L_x_WHbb_Region_BMin0_incJet1_distpTB2_J2_D_T2_SpcTauLH_Y2015_LTT0_L1_overallSyst_x_StatUncert'
p928
(lp929
F6.941101269389037
aI-1
asS'L_x_ttbar_Region_BMin0_incJet1_distpTB2_J2_D_T2_SpcTauLH_Y2015_LTT0_L1_overallSyst_x_StatUncert'
p930
(lp931
F61622.2681542635
aI-1
asS'L_x_stop_Region_BMin0_incJet1_distpTB2_J2_D_T2_SpcTauLH_Y2015_LTT0_L1_overallSyst_x_StatUncert'
p932
(lp933
F3689.0139768719673
aI-1
asS'L_x_Zlf_Region_BMin0_incJet1_distpTB2_J2_D_T2_SpcTauLH_Y2015_LTT0_L1_overallSyst_x_StatUncert'
p934
(lp935
F86.96049064770341
aI-1
asS'L_x_qqZHtautau_Region_BMin0_incJet1_distpTB2_J2_D_T2_SpcTauLH_Y2015_LTT0_L1_overallSyst_x_StatUncert'
p936
(lp937
F8.475917595205829
aI-1
asS'L_x_DYtt_Region_BMin0_incJet1_distpTB2_J2_D_T2_SpcTauLH_Y2015_LTT0_L1_overallSyst_x_StatUncert'
p938
(lp939
F2.720595322549343
aI-1
asS'L_x_ttH_Region_BMin0_incJet1_distpTB2_J2_D_T2_SpcTauLH_Y2015_LTT0_L1_overallSyst_x_StatUncert'
p940
(lp941
F92.98970926424954
aI-1
asS'L_x_ggZHtautau_Region_BMin0_incJet1_distpTB2_J2_D_T2_SpcTauLH_Y2015_LTT0_L1_overallSyst_x_StatUncert'
p942
(lp943
F2.8714924461673945
aI-1
asS'L_x_VBFHtautau_Region_BMin0_incJet1_distpTB2_J2_D_T2_SpcTauLH_Y2015_LTT0_L1_overallSyst_x_StatUncert'
p944
(lp945
F1.4113844430248719
aI-1
asS'L_x_WHtautau_Region_BMin0_incJet1_distpTB2_J2_D_T2_SpcTauLH_Y2015_LTT0_L1_overallSyst_x_StatUncert'
p946
(lp947
F0.7001967411488295
aI-1
asg20
(lp948
F6.07223863292711
aI-1
asS'L_x_Ztthf_Region_BMin0_incJet1_distpTB2_J2_D_T2_SpcTauLH_Y2015_LTT0_L1_overallSyst_x_StatUncert'
p949
(lp950
F1218.2650351370685
aI-1
asS'L_x_qqZHbb_Region_BMin0_incJet1_distpTB2_J2_D_T2_SpcTauLH_Y2015_LTT0_L1_overallSyst_x_StatUncert'
p951
(lp952
F17.676977115035697
aI-1
asS'L_x_W_Region_BMin0_incJet1_distpTB2_J2_D_T2_SpcTauLH_Y2015_LTT0_L1_overallSyst_x_StatUncert'
p953
(lp954
F75.35493618063629
aI-1
asS'L_x_Zhf_Region_BMin0_incJet1_distpTB2_J2_D_T2_SpcTauLH_Y2015_LTT0_L1_overallSyst_x_StatUncert'
p955
(lp956
F677.7107776012272
aI-1
asS'L_x_hhttbbVBFSM_Region_BMin0_incJet1_distpTB2_J2_D_T2_SpcTauLH_Y2015_LTT0_L1_overallSyst_x_HistSyst'
p957
(lp958
F0.20024864774131856
aI-1
asg11
F98449.0
sS'L_x_hhttbb_Region_BMin0_incJet1_distpTB2_J2_D_T2_SpcTauLH_Y2015_LTT0_L1_overallSyst_x_HistSyst'
p959
(lp960
F5.871989985185792
aI-1
asg44
(lp961
F101710.87395508488
aI-1
asS'L_x_ggFHtautau_Region_BMin0_incJet1_distpTB2_J2_D_T2_SpcTauLH_Y2015_LTT0_L1_overallSyst_x_StatUncert'
p962
(lp963
F17.060060299001634
aI-1
asS'L_x_ggZHbb_Region_BMin0_incJet1_distpTB2_J2_D_T2_SpcTauLH_Y2015_LTT0_L1_overallSyst_x_StatUncert'
p964
(lp965
F5.800336905966105
aI-1
asS'L_x_Zttlf_Region_BMin0_incJet1_distpTB2_J2_D_T2_SpcTauLH_Y2015_LTT0_L1_overallSyst_x_StatUncert'
p966
(lp967
F91.38620066037402
aI-1
asS'L_x_Wtt_Region_BMin0_incJet1_distpTB2_J2_D_T2_SpcTauLH_Y2015_LTT0_L1_overallSyst_x_StatUncert'
p968
(lp969
F5.357786972075701
aI-1
assS'Region_BMin0_incJet1_distdPtLepTau_J2_D_T2_SpcTauLH_Y2015_LTT1_L1'
p970
(dp971
g3
F0.00021624642987185292
sS'L_x_hhttbb_Region_BMin0_incJet1_distdPtLepTau_J2_D_T2_SpcTauLH_Y2015_LTT1_L1_overallSyst_x_HistSyst'
p972
(lp973
F1.3920847717672586
aI-1
asS'L_x_Zttlf_Region_BMin0_incJet1_distdPtLepTau_J2_D_T2_SpcTauLH_Y2015_LTT1_L1_overallSyst_x_StatUncert'
p974
(lp975
F48.41292428970337
aI-1
asS'L_x_ttbar_Region_BMin0_incJet1_distdPtLepTau_J2_D_T2_SpcTauLH_Y2015_LTT1_L1_overallSyst_x_StatUncert'
p976
(lp977
F4200.958834648132
aI-1
asg4
F0.017682300433631178
sS'L_x_diboson_Region_BMin0_incJet1_distdPtLepTau_J2_D_T2_SpcTauLH_Y2015_LTT1_L1_overallSyst_x_StatUncert'
p978
(lp979
F20.47260420024395
aI-1
asS'L_x_qqZHtautau_Region_BMin0_incJet1_distdPtLepTau_J2_D_T2_SpcTauLH_Y2015_LTT1_L1_overallSyst_x_StatUncert'
p980
(lp981
F2.1366034373641014
aI-1
asg7
(lp982
F1.446180458238814
aF-1.0
asS'L_x_DYtt_Region_BMin0_incJet1_distdPtLepTau_J2_D_T2_SpcTauLH_Y2015_LTT1_L1_overallSyst_x_StatUncert'
p983
(lp984
F0.2631887272000313
aI-1
asS'L_x_ttH_Region_BMin0_incJet1_distdPtLepTau_J2_D_T2_SpcTauLH_Y2015_LTT1_L1_overallSyst_x_StatUncert'
p985
(lp986
F10.890043672174215
aI-1
asS'L_x_WHtautau_Region_BMin0_incJet1_distdPtLepTau_J2_D_T2_SpcTauLH_Y2015_LTT1_L1_overallSyst_x_StatUncert'
p987
(lp988
F0.1651983498595655
aI-1
asg30
(lp989
F6687.650099452818
aI-1
asS'L_x_W_Region_BMin0_incJet1_distdPtLepTau_J2_D_T2_SpcTauLH_Y2015_LTT1_L1_overallSyst_x_StatUncert'
p990
(lp991
F1.1764650419354439
aI-1
asS'L_x_ggFHtautau_Region_BMin0_incJet1_distdPtLepTau_J2_D_T2_SpcTauLH_Y2015_LTT1_L1_overallSyst_x_StatUncert'
p992
(lp993
F4.493365979520604
aI-1
asS'L_x_Wtt_Region_BMin0_incJet1_distdPtLepTau_J2_D_T2_SpcTauLH_Y2015_LTT1_L1_overallSyst_x_StatUncert'
p994
(lp995
F2.700064092874527
aI-1
asS'L_x_Ztthf_Region_BMin0_incJet1_distdPtLepTau_J2_D_T2_SpcTauLH_Y2015_LTT1_L1_overallSyst_x_StatUncert'
p996
(lp997
F402.86716866493225
aI-1
asS'L_x_DY_Region_BMin0_incJet1_distdPtLepTau_J2_D_T2_SpcTauLH_Y2015_LTT1_L1_overallSyst_x_StatUncert'
p998
(lp999
F0.6285927295684814
aI-1
asg20
(lp1000
F1.446180458238814
aI-1
asS'L_x_stop_Region_BMin0_incJet1_distdPtLepTau_J2_D_T2_SpcTauLH_Y2015_LTT1_L1_overallSyst_x_StatUncert'
p1001
(lp1002
F195.7456535100937
aI-1
asS'L_x_Zlf_Region_BMin0_incJet1_distdPtLepTau_J2_D_T2_SpcTauLH_Y2015_LTT1_L1_overallSyst_x_StatUncert'
p1003
(lp1004
F2.2421367336064577
aI-1
asS'L_x_ggZHbb_Region_BMin0_incJet1_distdPtLepTau_J2_D_T2_SpcTauLH_Y2015_LTT1_L1_overallSyst_x_StatUncert'
p1005
(lp1006
F1.4503837898373604
aI-1
asS'L_x_Fake_Region_BMin0_incJet1_distdPtLepTau_J2_D_T2_SpcTauLH_Y2015_LTT1_L1_overallSyst_x_StatUncert'
p1007
(lp1008
F1747.9872825145721
aI-1
asg11
F6346.0
sS'L_x_VBFHtautau_Region_BMin0_incJet1_distdPtLepTau_J2_D_T2_SpcTauLH_Y2015_LTT1_L1_overallSyst_x_StatUncert'
p1009
(lp1010
F0.3649467451032251
aI-1
asS'L_x_WHbb_Region_BMin0_incJet1_distdPtLepTau_J2_D_T2_SpcTauLH_Y2015_LTT1_L1_overallSyst_x_StatUncert'
p1011
(lp1012
F0.17212956282310188
aI-1
asg44
(lp1013
F6689.096279911057
aI-1
asS'L_x_Zhf_Region_BMin0_incJet1_distdPtLepTau_J2_D_T2_SpcTauLH_Y2015_LTT1_L1_overallSyst_x_StatUncert'
p1014
(lp1015
F39.95960971713066
aI-1
asS'L_x_qqZHbb_Region_BMin0_incJet1_distdPtLepTau_J2_D_T2_SpcTauLH_Y2015_LTT1_L1_overallSyst_x_StatUncert'
p1016
(lp1017
F3.8276507556438446
aI-1
asS'L_x_hhttbbVBFSM_Region_BMin0_incJet1_distdPtLepTau_J2_D_T2_SpcTauLH_Y2015_LTT1_L1_overallSyst_x_HistSyst'
p1018
(lp1019
F0.05409568647155538
aI-1
asS'L_x_ggZHtautau_Region_BMin0_incJet1_distdPtLepTau_J2_D_T2_SpcTauLH_Y2015_LTT1_L1_overallSyst_x_StatUncert'
p1020
(lp1021
F0.7352522904984653
aI-1
ass.