(dp0
S'Region_BMin0_incJet1_distJet1Pt_J2_Y2015_DLLOS_T2_SpcTauHH_L0'
p1
(dp2
S'S/B'
p3
F0.002613402700768023
sS'L_x_ZHbb_Region_BMin0_incJet1_distJet1Pt_J2_Y2015_DLLOS_T2_SpcTauHH_L0_overallSyst_x_StatUncert'
p4
(lp5
F13.17651103818379
aI-1
asS'L_x_ttbarFake_Region_BMin0_incJet1_distJet1Pt_J2_Y2015_DLLOS_T2_SpcTauHH_L0_overallSyst_x_StatUncert'
p6
(lp7
F2152.598932474824
aI-1
asS'L_x_ttH_Region_BMin0_incJet1_distJet1Pt_J2_Y2015_DLLOS_T2_SpcTauHH_L0_overallSyst_x_StatUncert'
p8
(lp9
F31.929749762347996
aI-1
asS'S/sqrt(S+B)'
p10
F0.23810130560563855
sS'L_x_hhttbb_Region_BMin0_incJet1_distJet1Pt_J2_Y2015_DLLOS_T2_SpcTauHH_L0_overallSyst_x_HistSyst'
p11
(lp12
F21.749572442824885
aI-1
asS'L_x_Zhf_Region_BMin0_incJet1_distJet1Pt_J2_Y2015_DLLOS_T2_SpcTauHH_L0_overallSyst_x_StatUncert'
p13
(lp14
F1.426960659888309
aI-1
asS'SignalExpected'
p15
(lp16
F4349.914488564977
aF-200.0
asS'L_x_stop_Region_BMin0_incJet1_distJet1Pt_J2_Y2015_DLLOS_T2_SpcTauHH_L0_overallSyst_x_StatUncert'
p17
(lp18
F167.41095816625918
aI-1
asS'L_x_Zlf_Region_BMin0_incJet1_distJet1Pt_J2_Y2015_DLLOS_T2_SpcTauHH_L0_overallSyst_x_StatUncert'
p19
(lp20
F0.3134699302329325
aI-1
asS'L_x_ggFHtautau_Region_BMin0_incJet1_distJet1Pt_J2_Y2015_DLLOS_T2_SpcTauHH_L0_overallSyst_x_StatUncert'
p21
(lp22
F10.07013319616233
aI-1
asS'L_x_WHbb_Region_BMin0_incJet1_distJet1Pt_J2_Y2015_DLLOS_T2_SpcTauHH_L0_overallSyst_x_StatUncert'
p23
(lp24
F0.15612711679137573
aI-1
asS'Bkg'
p25
(lp26
F8322.319570739386
aI-1
asS'L_x_VBFHtautau_Region_BMin0_incJet1_distJet1Pt_J2_Y2015_DLLOS_T2_SpcTauHH_L0_overallSyst_x_StatUncert'
p27
(lp28
F1.4028332516847744
aI-1
asS'Signal'
p29
(lp30
F21.749572442824885
aI-1
asS'L_x_ttbar_Region_BMin0_incJet1_distJet1Pt_J2_Y2015_DLLOS_T2_SpcTauHH_L0_overallSyst_x_StatUncert'
p31
(lp32
F3113.3702597051456
aI-1
asS'L_x_Zttlf_Region_BMin0_incJet1_distJet1Pt_J2_Y2015_DLLOS_T2_SpcTauHH_L0_overallSyst_x_StatUncert'
p33
(lp34
F64.64984934979945
aI-1
asS'L_x_Fake_Region_BMin0_incJet1_distJet1Pt_J2_Y2015_DLLOS_T2_SpcTauHH_L0_overallSyst_x_StatUncert'
p35
(lp36
F1309.2734265319014
aI-1
asS'data'
p37
F8380.0
sS'L_x_ZHtautau_Region_BMin0_incJet1_distJet1Pt_J2_Y2015_DLLOS_T2_SpcTauHH_L0_overallSyst_x_StatUncert'
p38
(lp39
F5.80467288030126
aI-1
asS'L_x_WHtautau_Region_BMin0_incJet1_distJet1Pt_J2_Y2015_DLLOS_T2_SpcTauHH_L0_overallSyst_x_StatUncert'
p40
(lp41
F0.3632905318666116
aI-1
asS'MC'
p42
(lp43
F8344.06914318221
aI-1
asS'L_x_Ztthf_Region_BMin0_incJet1_distJet1Pt_J2_Y2015_DLLOS_T2_SpcTauHH_L0_overallSyst_x_StatUncert'
p44
(lp45
F1365.5456363114524
aI-1
asS'L_x_Wtt_Region_BMin0_incJet1_distJet1Pt_J2_Y2015_DLLOS_T2_SpcTauHH_L0_overallSyst_x_StatUncert'
p46
(lp47
F44.907424524815625
aI-1
asS'L_x_diboson_Region_BMin0_incJet1_distJet1Pt_J2_Y2015_DLLOS_T2_SpcTauHH_L0_overallSyst_x_StatUncert'
p48
(lp49
F39.1028179335901
aI-1
asS'L_x_W_Region_BMin0_incJet1_distJet1Pt_J2_Y2015_DLLOS_T2_SpcTauHH_L0_overallSyst_x_StatUncert'
p50
(lp51
F0.8165173741393614
aI-1
assS'Region_BMin0_incJet1_distTau1Eta_J2_Y2015_DLLOS_T2_SpcTauHH_L0'
p52
(dp53
S'L_x_ZHbb_Region_BMin0_incJet1_distTau1Eta_J2_Y2015_DLLOS_T2_SpcTauHH_L0_overallSyst_x_StatUncert'
p54
(lp55
F13.17663252983737
aI-1
asg3
F0.0026127271817171283
sS'L_x_ttbarFake_Region_BMin0_incJet1_distTau1Eta_J2_Y2015_DLLOS_T2_SpcTauHH_L0_overallSyst_x_StatUncert'
p56
(lp57
F2152.5995647142104
aI-1
asS'L_x_ZHtautau_Region_BMin0_incJet1_distTau1Eta_J2_Y2015_DLLOS_T2_SpcTauHH_L0_overallSyst_x_StatUncert'
p58
(lp59
F5.804676294197764
aI-1
asS'L_x_VBFHtautau_Region_BMin0_incJet1_distTau1Eta_J2_Y2015_DLLOS_T2_SpcTauHH_L0_overallSyst_x_StatUncert'
p60
(lp61
F1.4028329207299473
aI-1
asS'L_x_stop_Region_BMin0_incJet1_distTau1Eta_J2_Y2015_DLLOS_T2_SpcTauHH_L0_overallSyst_x_StatUncert'
p62
(lp63
F167.40853527227756
aI-1
asg15
(lp64
F4349.913282357945
aF-200.0
asS'L_x_ttH_Region_BMin0_incJet1_distTau1Eta_J2_Y2015_DLLOS_T2_SpcTauHH_L0_overallSyst_x_StatUncert'
p65
(lp66
F31.93839623845641
aI-1
asg25
(lp67
F8324.468993159686
aI-1
asS'L_x_Zhf_Region_BMin0_incJet1_distTau1Eta_J2_Y2015_DLLOS_T2_SpcTauHH_L0_overallSyst_x_StatUncert'
p68
(lp69
F1.426960587612244
aI-1
asS'L_x_ggFHtautau_Region_BMin0_incJet1_distTau1Eta_J2_Y2015_DLLOS_T2_SpcTauHH_L0_overallSyst_x_StatUncert'
p70
(lp71
F10.070133589600756
aI-1
asS'L_x_Zlf_Region_BMin0_incJet1_distTau1Eta_J2_Y2015_DLLOS_T2_SpcTauHH_L0_overallSyst_x_StatUncert'
p72
(lp73
F0.3134699302329314
aI-1
asS'L_x_Wtt_Region_BMin0_incJet1_distTau1Eta_J2_Y2015_DLLOS_T2_SpcTauHH_L0_overallSyst_x_StatUncert'
p74
(lp75
F44.66191471459894
aI-1
asS'L_x_ttbar_Region_BMin0_incJet1_distTau1Eta_J2_Y2015_DLLOS_T2_SpcTauHH_L0_overallSyst_x_StatUncert'
p76
(lp77
F3113.2381758831066
aI-1
asg29
(lp78
F21.749566411789726
aI-1
asS'L_x_diboson_Region_BMin0_incJet1_distTau1Eta_J2_Y2015_DLLOS_T2_SpcTauHH_L0_overallSyst_x_StatUncert'
p79
(lp80
F39.10735042116159
aI-1
asS'L_x_WHbb_Region_BMin0_incJet1_distTau1Eta_J2_Y2015_DLLOS_T2_SpcTauHH_L0_overallSyst_x_StatUncert'
p81
(lp82
F0.15612711251598574
aI-1
asg10
F0.23807057829115033
sS'L_x_Zttlf_Region_BMin0_incJet1_distTau1Eta_J2_Y2015_DLLOS_T2_SpcTauHH_L0_overallSyst_x_StatUncert'
p83
(lp84
F65.70678460504641
aI-1
asS'L_x_Ztthf_Region_BMin0_incJet1_distTau1Eta_J2_Y2015_DLLOS_T2_SpcTauHH_L0_overallSyst_x_StatUncert'
p85
(lp86
F1368.8426906162204
aI-1
asg37
F8380.0
sS'L_x_hhttbb_Region_BMin0_incJet1_distTau1Eta_J2_Y2015_DLLOS_T2_SpcTauHH_L0_overallSyst_x_HistSyst'
p87
(lp88
F21.749566411789726
aI-1
asg42
(lp89
F8346.218559571475
aI-1
asS'L_x_WHtautau_Region_BMin0_incJet1_distTau1Eta_J2_Y2015_DLLOS_T2_SpcTauHH_L0_overallSyst_x_StatUncert'
p90
(lp91
F0.3625037564991878
aI-1
asS'L_x_W_Region_BMin0_incJet1_distTau1Eta_J2_Y2015_DLLOS_T2_SpcTauHH_L0_overallSyst_x_StatUncert'
p92
(lp93
F0.8165173910728685
aI-1
asS'L_x_Fake_Region_BMin0_incJet1_distTau1Eta_J2_Y2015_DLLOS_T2_SpcTauHH_L0_overallSyst_x_StatUncert'
p94
(lp95
F1307.4357265823091
aI-1
assS'Region_BMin0_incJet1_distmBB_J2_Y2015_DLLOS_T2_SpcTauHH_L0'
p96
(dp97
S'L_x_W_Region_BMin0_incJet1_distmBB_J2_Y2015_DLLOS_T2_SpcTauHH_L0_overallSyst_x_StatUncert'
p98
(lp99
F0.8165173581851687
aI-1
asS'L_x_Zhf_Region_BMin0_incJet1_distmBB_J2_Y2015_DLLOS_T2_SpcTauHH_L0_overallSyst_x_StatUncert'
p100
(lp101
F1.407910479923774
aI-1
asS'L_x_Wtt_Region_BMin0_incJet1_distmBB_J2_Y2015_DLLOS_T2_SpcTauHH_L0_overallSyst_x_StatUncert'
p102
(lp103
F44.176791691195014
aI-1
asg3
F0.002660356844149
sg10
F0.24000150907577258
sS'L_x_hhttbb_Region_BMin0_incJet1_distmBB_J2_Y2015_DLLOS_T2_SpcTauHH_L0_overallSyst_x_HistSyst'
p104
(lp105
F21.709103786938805
aI-1
asS'L_x_WHbb_Region_BMin0_incJet1_distmBB_J2_Y2015_DLLOS_T2_SpcTauHH_L0_overallSyst_x_StatUncert'
p106
(lp107
F0.1561506458945304
aI-1
asg15
(lp108
F4341.820757387761
aF-200.0
asS'L_x_VBFHtautau_Region_BMin0_incJet1_distmBB_J2_Y2015_DLLOS_T2_SpcTauHH_L0_overallSyst_x_StatUncert'
p109
(lp110
F1.3283725139899991
aI-1
asS'L_x_Zttlf_Region_BMin0_incJet1_distmBB_J2_Y2015_DLLOS_T2_SpcTauHH_L0_overallSyst_x_StatUncert'
p111
(lp112
F61.62228123343621
aI-1
asS'L_x_ZHbb_Region_BMin0_incJet1_distmBB_J2_Y2015_DLLOS_T2_SpcTauHH_L0_overallSyst_x_StatUncert'
p113
(lp114
F13.161035068771874
aI-1
asS'L_x_ggFHtautau_Region_BMin0_incJet1_distmBB_J2_Y2015_DLLOS_T2_SpcTauHH_L0_overallSyst_x_StatUncert'
p115
(lp116
F9.854297346223715
aI-1
asS'L_x_Ztthf_Region_BMin0_incJet1_distmBB_J2_Y2015_DLLOS_T2_SpcTauHH_L0_overallSyst_x_StatUncert'
p117
(lp118
F1314.2936592253736
aI-1
asg29
(lp119
F21.709103786938805
aI-1
asg25
(lp120
F8160.222503490188
aI-1
asg37
F8233.0
sS'L_x_diboson_Region_BMin0_incJet1_distmBB_J2_Y2015_DLLOS_T2_SpcTauHH_L0_overallSyst_x_StatUncert'
p121
(lp122
F38.56881407349307
aI-1
asS'L_x_stop_Region_BMin0_incJet1_distmBB_J2_Y2015_DLLOS_T2_SpcTauHH_L0_overallSyst_x_StatUncert'
p123
(lp124
F158.96734732573162
aI-1
asS'L_x_ttbar_Region_BMin0_incJet1_distmBB_J2_Y2015_DLLOS_T2_SpcTauHH_L0_overallSyst_x_StatUncert'
p125
(lp126
F3057.112671035234
aI-1
asS'L_x_Zlf_Region_BMin0_incJet1_distmBB_J2_Y2015_DLLOS_T2_SpcTauHH_L0_overallSyst_x_StatUncert'
p127
(lp128
F0.3134699302329325
aI-1
asg42
(lp129
F8181.931607277127
aI-1
asS'L_x_WHtautau_Region_BMin0_incJet1_distmBB_J2_Y2015_DLLOS_T2_SpcTauHH_L0_overallSyst_x_StatUncert'
p130
(lp131
F0.3640871083748811
aI-1
asS'L_x_ttbarFake_Region_BMin0_incJet1_distmBB_J2_Y2015_DLLOS_T2_SpcTauHH_L0_overallSyst_x_StatUncert'
p132
(lp133
F2125.630864967843
aI-1
asS'L_x_ttH_Region_BMin0_incJet1_distmBB_J2_Y2015_DLLOS_T2_SpcTauHH_L0_overallSyst_x_StatUncert'
p134
(lp135
F30.866731492438777
aI-1
asS'L_x_Fake_Region_BMin0_incJet1_distmBB_J2_Y2015_DLLOS_T2_SpcTauHH_L0_overallSyst_x_StatUncert'
p136
(lp137
F1295.8026094677787
aI-1
asS'L_x_ZHtautau_Region_BMin0_incJet1_distmBB_J2_Y2015_DLLOS_T2_SpcTauHH_L0_overallSyst_x_StatUncert'
p138
(lp139
F5.778892526067152
aI-1
assS'Region_BMin0_incJet1_distmMMC_J2_Y2015_DLLOS_T2_SpcTauHH_L0'
p140
(dp141
S'L_x_ttbar_Region_BMin0_incJet1_distmMMC_J2_Y2015_DLLOS_T2_SpcTauHH_L0_overallSyst_x_StatUncert'
p142
(lp143
F3084.720052492148
aI-1
asg3
F0.0026323531745488147
sS'L_x_ttH_Region_BMin0_incJet1_distmMMC_J2_Y2015_DLLOS_T2_SpcTauHH_L0_overallSyst_x_StatUncert'
p144
(lp145
F31.854842330184404
aI-1
asg10
F0.238957876357447
sS'L_x_ttbarFake_Region_BMin0_incJet1_distmMMC_J2_Y2015_DLLOS_T2_SpcTauHH_L0_overallSyst_x_StatUncert'
p146
(lp147
F2144.1482867297277
aI-1
asS'L_x_stop_Region_BMin0_incJet1_distmMMC_J2_Y2015_DLLOS_T2_SpcTauHH_L0_overallSyst_x_StatUncert'
p148
(lp149
F165.54181595522874
aI-1
asS'L_x_Zlf_Region_BMin0_incJet1_distmMMC_J2_Y2015_DLLOS_T2_SpcTauHH_L0_overallSyst_x_StatUncert'
p150
(lp151
F0.3134699302329325
aI-1
asS'L_x_WHbb_Region_BMin0_incJet1_distmMMC_J2_Y2015_DLLOS_T2_SpcTauHH_L0_overallSyst_x_StatUncert'
p152
(lp153
F0.15128193950824506
aI-1
asg15
(lp154
F4349.8096588601275
aF-200.0
asg25
(lp155
F8262.207558082864
aI-1
asS'L_x_ZHtautau_Region_BMin0_incJet1_distmMMC_J2_Y2015_DLLOS_T2_SpcTauHH_L0_overallSyst_x_StatUncert'
p156
(lp157
F5.804774443811297
aI-1
asS'L_x_Zhf_Region_BMin0_incJet1_distmMMC_J2_Y2015_DLLOS_T2_SpcTauHH_L0_overallSyst_x_StatUncert'
p158
(lp159
F1.4268715818008433
aI-1
asS'L_x_Fake_Region_BMin0_incJet1_distmMMC_J2_Y2015_DLLOS_T2_SpcTauHH_L0_overallSyst_x_StatUncert'
p160
(lp161
F1286.3354973460864
aI-1
asS'L_x_diboson_Region_BMin0_incJet1_distmMMC_J2_Y2015_DLLOS_T2_SpcTauHH_L0_overallSyst_x_StatUncert'
p162
(lp163
F39.14508955003838
aI-1
asg29
(lp164
F21.74904829430064
aI-1
asS'L_x_Zttlf_Region_BMin0_incJet1_distmMMC_J2_Y2015_DLLOS_T2_SpcTauHH_L0_overallSyst_x_StatUncert'
p165
(lp166
F64.87020651570684
aI-1
asg37
F8311.0
sS'L_x_ggFHtautau_Region_BMin0_incJet1_distmMMC_J2_Y2015_DLLOS_T2_SpcTauHH_L0_overallSyst_x_StatUncert'
p167
(lp168
F10.069579632194804
aI-1
asS'L_x_Wtt_Region_BMin0_incJet1_distmMMC_J2_Y2015_DLLOS_T2_SpcTauHH_L0_overallSyst_x_StatUncert'
p169
(lp170
F44.5796319599865
aI-1
asS'L_x_W_Region_BMin0_incJet1_distmMMC_J2_Y2015_DLLOS_T2_SpcTauHH_L0_overallSyst_x_StatUncert'
p171
(lp172
F0.7372133223182558
aI-1
asS'L_x_WHtautau_Region_BMin0_incJet1_distmMMC_J2_Y2015_DLLOS_T2_SpcTauHH_L0_overallSyst_x_StatUncert'
p173
(lp174
F0.36201265762617196
aI-1
asg42
(lp175
F8283.956606377164
aI-1
asS'L_x_ZHbb_Region_BMin0_incJet1_distmMMC_J2_Y2015_DLLOS_T2_SpcTauHH_L0_overallSyst_x_StatUncert'
p176
(lp177
F13.175762381008376
aI-1
asS'L_x_Ztthf_Region_BMin0_incJet1_distmMMC_J2_Y2015_DLLOS_T2_SpcTauHH_L0_overallSyst_x_StatUncert'
p178
(lp179
F1367.568073500408
aI-1
asS'L_x_hhttbb_Region_BMin0_incJet1_distmMMC_J2_Y2015_DLLOS_T2_SpcTauHH_L0_overallSyst_x_HistSyst'
p180
(lp181
F21.74904829430064
aI-1
asS'L_x_VBFHtautau_Region_BMin0_incJet1_distmMMC_J2_Y2015_DLLOS_T2_SpcTauHH_L0_overallSyst_x_StatUncert'
p182
(lp183
F1.4030958148468688
aI-1
assS'Region_BMin0_incJet1_distdRTauTau_J2_Y2015_DLLOS_T2_SpcTauHH_L0'
p184
(dp185
S'L_x_Wtt_Region_BMin0_incJet1_distdRTauTau_J2_Y2015_DLLOS_T2_SpcTauHH_L0_overallSyst_x_StatUncert'
p186
(lp187
F44.87619915329827
aI-1
asg3
F0.002619683228879331
sg10
F0.23838494935452653
sS'L_x_Ztthf_Region_BMin0_incJet1_distdRTauTau_J2_Y2015_DLLOS_T2_SpcTauHH_L0_overallSyst_x_StatUncert'
p188
(lp189
F1367.6373526683267
aI-1
asg15
(lp190
F4349.858272608491
aF-200.0
asg25
(lp191
F8302.260030250503
aI-1
asS'L_x_stop_Region_BMin0_incJet1_distdRTauTau_J2_Y2015_DLLOS_T2_SpcTauHH_L0_overallSyst_x_StatUncert'
p192
(lp193
F167.40884386266688
aI-1
asS'L_x_Zlf_Region_BMin0_incJet1_distdRTauTau_J2_Y2015_DLLOS_T2_SpcTauHH_L0_overallSyst_x_StatUncert'
p194
(lp195
F0.3134699302329328
aI-1
asS'L_x_WHbb_Region_BMin0_incJet1_distdRTauTau_J2_Y2015_DLLOS_T2_SpcTauHH_L0_overallSyst_x_StatUncert'
p196
(lp197
F0.15541006408051294
aI-1
asS'L_x_ttH_Region_BMin0_incJet1_distdRTauTau_J2_Y2015_DLLOS_T2_SpcTauHH_L0_overallSyst_x_StatUncert'
p198
(lp199
F31.936045823701914
aI-1
asS'L_x_W_Region_BMin0_incJet1_distdRTauTau_J2_Y2015_DLLOS_T2_SpcTauHH_L0_overallSyst_x_StatUncert'
p200
(lp201
F0.7565846106034859
aI-1
asS'L_x_Fake_Region_BMin0_incJet1_distdRTauTau_J2_Y2015_DLLOS_T2_SpcTauHH_L0_overallSyst_x_StatUncert'
p202
(lp203
F1288.9977123617782
aI-1
asg29
(lp204
F21.749291363042452
aI-1
asS'L_x_ttbarFake_Region_BMin0_incJet1_distdRTauTau_J2_Y2015_DLLOS_T2_SpcTauHH_L0_overallSyst_x_StatUncert'
p205
(lp206
F2151.1838302464034
aI-1
asS'L_x_VBFHtautau_Region_BMin0_incJet1_distdRTauTau_J2_Y2015_DLLOS_T2_SpcTauHH_L0_overallSyst_x_StatUncert'
p207
(lp208
F1.4028330461575502
aI-1
asS'L_x_ZHbb_Region_BMin0_incJet1_distdRTauTau_J2_Y2015_DLLOS_T2_SpcTauHH_L0_overallSyst_x_StatUncert'
p209
(lp210
F13.176431101886056
aI-1
asS'L_x_Zhf_Region_BMin0_incJet1_distdRTauTau_J2_Y2015_DLLOS_T2_SpcTauHH_L0_overallSyst_x_StatUncert'
p211
(lp212
F1.4269577539081846
aI-1
asg37
F8363.0
sS'L_x_diboson_Region_BMin0_incJet1_distdRTauTau_J2_Y2015_DLLOS_T2_SpcTauHH_L0_overallSyst_x_StatUncert'
p213
(lp214
F39.14415264826949
aI-1
asS'L_x_ttbar_Region_BMin0_incJet1_distdRTauTau_J2_Y2015_DLLOS_T2_SpcTauHH_L0_overallSyst_x_StatUncert'
p215
(lp216
F3112.823065950676
aI-1
asS'L_x_ggFHtautau_Region_BMin0_incJet1_distdRTauTau_J2_Y2015_DLLOS_T2_SpcTauHH_L0_overallSyst_x_StatUncert'
p217
(lp218
F10.070133232240458
aI-1
asS'L_x_hhttbb_Region_BMin0_incJet1_distdRTauTau_J2_Y2015_DLLOS_T2_SpcTauHH_L0_overallSyst_x_HistSyst'
p219
(lp220
F21.749291363042452
aI-1
asg42
(lp221
F8324.009321613546
aI-1
asS'L_x_Zttlf_Region_BMin0_incJet1_distdRTauTau_J2_Y2015_DLLOS_T2_SpcTauHH_L0_overallSyst_x_StatUncert'
p222
(lp223
F64.78431963563779
aI-1
asS'L_x_ZHtautau_Region_BMin0_incJet1_distdRTauTau_J2_Y2015_DLLOS_T2_SpcTauHH_L0_overallSyst_x_StatUncert'
p224
(lp225
F5.804675481999906
aI-1
asS'L_x_WHtautau_Region_BMin0_incJet1_distdRTauTau_J2_Y2015_DLLOS_T2_SpcTauHH_L0_overallSyst_x_StatUncert'
p226
(lp227
F0.36201267863380493
aI-1
assS'Region_BMin0_incJet1_distmHH_J2_Y2015_DLLOS_T2_SpcTauHH_L0'
p228
(dp229
g3
F0.002619831743170069
sS'L_x_ZHbb_Region_BMin0_incJet1_distmHH_J2_Y2015_DLLOS_T2_SpcTauHH_L0_overallSyst_x_StatUncert'
p230
(lp231
F13.160522120246515
aI-1
asS'L_x_Wtt_Region_BMin0_incJet1_distmHH_J2_Y2015_DLLOS_T2_SpcTauHH_L0_overallSyst_x_StatUncert'
p232
(lp233
F44.1336024101432
aI-1
asS'L_x_Ztthf_Region_BMin0_incJet1_distmHH_J2_Y2015_DLLOS_T2_SpcTauHH_L0_overallSyst_x_StatUncert'
p234
(lp235
F1353.369783280544
aI-1
asS'L_x_stop_Region_BMin0_incJet1_distmHH_J2_Y2015_DLLOS_T2_SpcTauHH_L0_overallSyst_x_StatUncert'
p236
(lp237
F162.09263813604056
aI-1
asg15
(lp238
F4336.356330102993
aF-200.0
asS'L_x_Zlf_Region_BMin0_incJet1_distmHH_J2_Y2015_DLLOS_T2_SpcTauHH_L0_overallSyst_x_StatUncert'
p239
(lp240
F0.3134699302329325
aI-1
asg25
(lp241
F8276.020666991159
aI-1
asS'L_x_VBFHtautau_Region_BMin0_incJet1_distmHH_J2_Y2015_DLLOS_T2_SpcTauHH_L0_overallSyst_x_StatUncert'
p242
(lp243
F1.3461244176067897
aI-1
asS'L_x_ttbarFake_Region_BMin0_incJet1_distmHH_J2_Y2015_DLLOS_T2_SpcTauHH_L0_overallSyst_x_StatUncert'
p244
(lp245
F2148.1997537247726
aI-1
asS'L_x_Fake_Region_BMin0_incJet1_distmHH_J2_Y2015_DLLOS_T2_SpcTauHH_L0_overallSyst_x_StatUncert'
p246
(lp247
F1299.9465932118155
aI-1
asS'L_x_ZHtautau_Region_BMin0_incJet1_distmHH_J2_Y2015_DLLOS_T2_SpcTauHH_L0_overallSyst_x_StatUncert'
p248
(lp249
F5.796950200554826
aI-1
asS'L_x_W_Region_BMin0_incJet1_distmHH_J2_Y2015_DLLOS_T2_SpcTauHH_L0_overallSyst_x_StatUncert'
p250
(lp251
F0.8217014478625551
aI-1
asS'L_x_WHbb_Region_BMin0_incJet1_distmHH_J2_Y2015_DLLOS_T2_SpcTauHH_L0_overallSyst_x_StatUncert'
p252
(lp253
F0.15390085034076736
aI-1
asS'L_x_WHtautau_Region_BMin0_incJet1_distmHH_J2_Y2015_DLLOS_T2_SpcTauHH_L0_overallSyst_x_StatUncert'
p254
(lp255
F0.363738063033366
aI-1
asS'L_x_diboson_Region_BMin0_incJet1_distmHH_J2_Y2015_DLLOS_T2_SpcTauHH_L0_overallSyst_x_StatUncert'
p256
(lp257
F38.97547845395631
aI-1
asS'L_x_Zhf_Region_BMin0_incJet1_distmHH_J2_Y2015_DLLOS_T2_SpcTauHH_L0_overallSyst_x_StatUncert'
p258
(lp259
F1.4076963012226527
aI-1
asg29
(lp260
F21.681781650514964
aI-1
asg10
F0.23802141785377443
sS'L_x_Zttlf_Region_BMin0_incJet1_distmHH_J2_Y2015_DLLOS_T2_SpcTauHH_L0_overallSyst_x_StatUncert'
p261
(lp262
F63.63495096064233
aI-1
asg37
F8321.0
sg42
(lp263
F8297.702448641674
aI-1
asS'L_x_ttbar_Region_BMin0_incJet1_distmHH_J2_Y2015_DLLOS_T2_SpcTauHH_L0_overallSyst_x_StatUncert'
p264
(lp265
F3100.896377970334
aI-1
asS'L_x_ttH_Region_BMin0_incJet1_distmHH_J2_Y2015_DLLOS_T2_SpcTauHH_L0_overallSyst_x_StatUncert'
p266
(lp267
F31.56301183594063
aI-1
asS'L_x_ggFHtautau_Region_BMin0_incJet1_distmHH_J2_Y2015_DLLOS_T2_SpcTauHH_L0_overallSyst_x_StatUncert'
p268
(lp269
F9.844373675869532
aI-1
asS'L_x_hhttbb_Region_BMin0_incJet1_distmHH_J2_Y2015_DLLOS_T2_SpcTauHH_L0_overallSyst_x_HistSyst'
p270
(lp271
F21.681781650514964
aI-1
assS'Region_BMin0_incJet1_distTau0Eta_J2_Y2015_DLLOS_T2_SpcTauHH_L0'
p272
(dp273
S'L_x_VBFHtautau_Region_BMin0_incJet1_distTau0Eta_J2_Y2015_DLLOS_T2_SpcTauHH_L0_overallSyst_x_StatUncert'
p274
(lp275
F1.4028330589481026
aI-1
asS'L_x_Zhf_Region_BMin0_incJet1_distTau0Eta_J2_Y2015_DLLOS_T2_SpcTauHH_L0_overallSyst_x_StatUncert'
p276
(lp277
F1.4269606656353067
aI-1
asS'L_x_ttH_Region_BMin0_incJet1_distTau0Eta_J2_Y2015_DLLOS_T2_SpcTauHH_L0_overallSyst_x_StatUncert'
p278
(lp279
F31.938398693336193
aI-1
asg10
F0.23803118737041132
sg3
F0.0026118603847309877
sg15
(lp280
F4349.913302318505
aF-200.0
asS'L_x_ZHtautau_Region_BMin0_incJet1_distTau0Eta_J2_Y2015_DLLOS_T2_SpcTauHH_L0_overallSyst_x_StatUncert'
p281
(lp282
F5.804673134175723
aI-1
asS'L_x_stop_Region_BMin0_incJet1_distTau0Eta_J2_Y2015_DLLOS_T2_SpcTauHH_L0_overallSyst_x_StatUncert'
p283
(lp284
F167.572522571477
aI-1
asg25
(lp285
F8327.231669327017
aI-1
asS'L_x_W_Region_BMin0_incJet1_distTau0Eta_J2_Y2015_DLLOS_T2_SpcTauHH_L0_overallSyst_x_StatUncert'
p286
(lp287
F0.8165173998949702
aI-1
asS'L_x_Wtt_Region_BMin0_incJet1_distTau0Eta_J2_Y2015_DLLOS_T2_SpcTauHH_L0_overallSyst_x_StatUncert'
p288
(lp289
F44.5829234216061
aI-1
asS'L_x_ggFHtautau_Region_BMin0_incJet1_distTau0Eta_J2_Y2015_DLLOS_T2_SpcTauHH_L0_overallSyst_x_StatUncert'
p290
(lp291
F10.069306374835437
aI-1
asS'L_x_WHbb_Region_BMin0_incJet1_distTau0Eta_J2_Y2015_DLLOS_T2_SpcTauHH_L0_overallSyst_x_StatUncert'
p292
(lp293
F0.15568517765598044
aI-1
asS'L_x_ttbar_Region_BMin0_incJet1_distTau0Eta_J2_Y2015_DLLOS_T2_SpcTauHH_L0_overallSyst_x_StatUncert'
p294
(lp295
F3113.2383425928556
aI-1
asS'L_x_Zlf_Region_BMin0_incJet1_distTau0Eta_J2_Y2015_DLLOS_T2_SpcTauHH_L0_overallSyst_x_StatUncert'
p296
(lp297
F0.3134699302329328
aI-1
asS'L_x_Zttlf_Region_BMin0_incJet1_distTau0Eta_J2_Y2015_DLLOS_T2_SpcTauHH_L0_overallSyst_x_StatUncert'
p298
(lp299
F65.87315672340213
aI-1
asg29
(lp300
F21.749566511592526
aI-1
asS'L_x_diboson_Region_BMin0_incJet1_distTau0Eta_J2_Y2015_DLLOS_T2_SpcTauHH_L0_overallSyst_x_StatUncert'
p301
(lp302
F39.10592145927106
aI-1
asg37
F8380.0
sg42
(lp303
F8348.98123583861
aI-1
asS'L_x_Fake_Region_BMin0_incJet1_distTau0Eta_J2_Y2015_DLLOS_T2_SpcTauHH_L0_overallSyst_x_StatUncert'
p304
(lp305
F1307.435728390494
aI-1
asS'L_x_WHtautau_Region_BMin0_incJet1_distTau0Eta_J2_Y2015_DLLOS_T2_SpcTauHH_L0_overallSyst_x_StatUncert'
p306
(lp307
F0.36201475913901393
aI-1
asS'L_x_Ztthf_Region_BMin0_incJet1_distTau0Eta_J2_Y2015_DLLOS_T2_SpcTauHH_L0_overallSyst_x_StatUncert'
p308
(lp309
F1371.3577634202616
aI-1
asS'L_x_hhttbb_Region_BMin0_incJet1_distTau0Eta_J2_Y2015_DLLOS_T2_SpcTauHH_L0_overallSyst_x_HistSyst'
p310
(lp311
F21.749566511592526
aI-1
asS'L_x_ttbarFake_Region_BMin0_incJet1_distTau0Eta_J2_Y2015_DLLOS_T2_SpcTauHH_L0_overallSyst_x_StatUncert'
p312
(lp313
F2152.5988247358737
aI-1
asS'L_x_ZHbb_Region_BMin0_incJet1_distTau0Eta_J2_Y2015_DLLOS_T2_SpcTauHH_L0_overallSyst_x_StatUncert'
p314
(lp315
F13.176626817922422
aI-1
assS'Region_BMin0_incJet1_distTau1Pt_J2_Y2015_DLLOS_T2_SpcTauHH_L0'
p316
(dp317
S'L_x_WHbb_Region_BMin0_incJet1_distTau1Pt_J2_Y2015_DLLOS_T2_SpcTauHH_L0_overallSyst_x_StatUncert'
p318
(lp319
F0.1560810601395957
aI-1
asg3
F0.0026135902381560993
sS'L_x_ZHtautau_Region_BMin0_incJet1_distTau1Pt_J2_Y2015_DLLOS_T2_SpcTauHH_L0_overallSyst_x_StatUncert'
p320
(lp321
F5.80467524024273
aI-1
asS'L_x_Ztthf_Region_BMin0_incJet1_distTau1Pt_J2_Y2015_DLLOS_T2_SpcTauHH_L0_overallSyst_x_StatUncert'
p322
(lp323
F1366.4916515523316
aI-1
asS'L_x_W_Region_BMin0_incJet1_distTau1Pt_J2_Y2015_DLLOS_T2_SpcTauHH_L0_overallSyst_x_StatUncert'
p324
(lp325
F0.8165173523184435
aI-1
asS'L_x_Zlf_Region_BMin0_incJet1_distTau1Pt_J2_Y2015_DLLOS_T2_SpcTauHH_L0_overallSyst_x_StatUncert'
p326
(lp327
F0.3134699302329325
aI-1
asS'L_x_stop_Region_BMin0_incJet1_distTau1Pt_J2_Y2015_DLLOS_T2_SpcTauHH_L0_overallSyst_x_StatUncert'
p328
(lp329
F167.40927693864072
aI-1
asg10
F0.23810667109629385
sS'L_x_ggFHtautau_Region_BMin0_incJet1_distTau1Pt_J2_Y2015_DLLOS_T2_SpcTauHH_L0_overallSyst_x_StatUncert'
p330
(lp331
F10.070131821110605
aI-1
asg15
(lp332
F4349.799209691738
aF-200.0
asg25
(lp333
F8321.501867791912
aI-1
asS'L_x_ttbarFake_Region_BMin0_incJet1_distTau1Pt_J2_Y2015_DLLOS_T2_SpcTauHH_L0_overallSyst_x_StatUncert'
p334
(lp335
F2152.599898213345
aI-1
asS'L_x_Wtt_Region_BMin0_incJet1_distTau1Pt_J2_Y2015_DLLOS_T2_SpcTauHH_L0_overallSyst_x_StatUncert'
p336
(lp337
F44.90698218198123
aI-1
asS'L_x_Fake_Region_BMin0_incJet1_distTau1Pt_J2_Y2015_DLLOS_T2_SpcTauHH_L0_overallSyst_x_StatUncert'
p338
(lp339
F1308.4631253578568
aI-1
asS'L_x_VBFHtautau_Region_BMin0_incJet1_distTau1Pt_J2_Y2015_DLLOS_T2_SpcTauHH_L0_overallSyst_x_StatUncert'
p340
(lp341
F1.4028331696995329
aI-1
asg29
(lp342
F21.74899604845869
aI-1
asS'L_x_ttbar_Region_BMin0_incJet1_distTau1Pt_J2_Y2015_DLLOS_T2_SpcTauHH_L0_overallSyst_x_StatUncert'
p343
(lp344
F3112.414245816942
aI-1
asS'L_x_ttH_Region_BMin0_incJet1_distTau1Pt_J2_Y2015_DLLOS_T2_SpcTauHH_L0_overallSyst_x_StatUncert'
p345
(lp346
F31.932883395124215
aI-1
asg37
F8379.0
sg42
(lp347
F8343.250863840372
aI-1
asS'L_x_hhttbb_Region_BMin0_incJet1_distTau1Pt_J2_Y2015_DLLOS_T2_SpcTauHH_L0_overallSyst_x_HistSyst'
p348
(lp349
F21.74899604845869
aI-1
asS'L_x_diboson_Region_BMin0_incJet1_distTau1Pt_J2_Y2015_DLLOS_T2_SpcTauHH_L0_overallSyst_x_StatUncert'
p350
(lp351
F39.101226990744706
aI-1
asS'L_x_Zttlf_Region_BMin0_incJet1_distTau1Pt_J2_Y2015_DLLOS_T2_SpcTauHH_L0_overallSyst_x_StatUncert'
p352
(lp353
F64.65325904106611
aI-1
asS'L_x_ZHbb_Region_BMin0_incJet1_distTau1Pt_J2_Y2015_DLLOS_T2_SpcTauHH_L0_overallSyst_x_StatUncert'
p354
(lp355
F13.17663648896098
aI-1
asS'L_x_Zhf_Region_BMin0_incJet1_distTau1Pt_J2_Y2015_DLLOS_T2_SpcTauHH_L0_overallSyst_x_StatUncert'
p356
(lp357
F1.4269605908711986
aI-1
asS'L_x_WHtautau_Region_BMin0_incJet1_distTau1Pt_J2_Y2015_DLLOS_T2_SpcTauHH_L0_overallSyst_x_StatUncert'
p358
(lp359
F0.3620126503041632
aI-1
assS'Region_BMin0_incJet1_distJet0Pt_J2_Y2015_DLLOS_T2_SpcTauHH_L0'
p360
(dp361
S'L_x_Zhf_Region_BMin0_incJet1_distJet0Pt_J2_Y2015_DLLOS_T2_SpcTauHH_L0_overallSyst_x_StatUncert'
p362
(lp363
F1.4269605713332134
aI-1
asg3
F0.002611144915209925
sS'L_x_WHbb_Region_BMin0_incJet1_distJet0Pt_J2_Y2015_DLLOS_T2_SpcTauHH_L0_overallSyst_x_StatUncert'
p364
(lp365
F0.15612712463243228
aI-1
asS'L_x_ggFHtautau_Region_BMin0_incJet1_distJet0Pt_J2_Y2015_DLLOS_T2_SpcTauHH_L0_overallSyst_x_StatUncert'
p366
(lp367
F10.010064926604183
aI-1
asS'L_x_Zttlf_Region_BMin0_incJet1_distJet0Pt_J2_Y2015_DLLOS_T2_SpcTauHH_L0_overallSyst_x_StatUncert'
p368
(lp369
F63.68834221226433
aI-1
asg10
F0.23778118007147853
sS'L_x_ZHtautau_Region_BMin0_incJet1_distJet0Pt_J2_Y2015_DLLOS_T2_SpcTauHH_L0_overallSyst_x_StatUncert'
p370
(lp371
F5.8003418038951144
aI-1
asS'L_x_diboson_Region_BMin0_incJet1_distJet0Pt_J2_Y2015_DLLOS_T2_SpcTauHH_L0_overallSyst_x_StatUncert'
p372
(lp373
F38.93130337954269
aI-1
asg15
(lp374
F4341.966859916931
aF-200.0
asS'L_x_ttbar_Region_BMin0_incJet1_distJet0Pt_J2_Y2015_DLLOS_T2_SpcTauHH_L0_overallSyst_x_StatUncert'
p375
(lp376
F3112.122343376573
aI-1
asg25
(lp377
F8314.296986400419
aI-1
asS'L_x_hhttbb_Region_BMin0_incJet1_distJet0Pt_J2_Y2015_DLLOS_T2_SpcTauHH_L0_overallSyst_x_HistSyst'
p378
(lp379
F21.709834299584656
aI-1
asS'L_x_Fake_Region_BMin0_incJet1_distJet0Pt_J2_Y2015_DLLOS_T2_SpcTauHH_L0_overallSyst_x_StatUncert'
p380
(lp381
F1308.1920630145894
aI-1
asg29
(lp382
F21.709834299584656
aI-1
asS'L_x_W_Region_BMin0_incJet1_distJet0Pt_J2_Y2015_DLLOS_T2_SpcTauHH_L0_overallSyst_x_StatUncert'
p383
(lp384
F0.8172486181838953
aI-1
asS'L_x_Wtt_Region_BMin0_incJet1_distJet0Pt_J2_Y2015_DLLOS_T2_SpcTauHH_L0_overallSyst_x_StatUncert'
p385
(lp386
F44.837318020503126
aI-1
asg37
F8370.0
sS'L_x_VBFHtautau_Region_BMin0_incJet1_distJet0Pt_J2_Y2015_DLLOS_T2_SpcTauHH_L0_overallSyst_x_StatUncert'
p387
(lp388
F1.3962130275124949
aI-1
asS'L_x_ttbarFake_Region_BMin0_incJet1_distJet0Pt_J2_Y2015_DLLOS_T2_SpcTauHH_L0_overallSyst_x_StatUncert'
p389
(lp390
F2151.8795747430217
aI-1
asS'L_x_ttH_Region_BMin0_incJet1_distJet0Pt_J2_Y2015_DLLOS_T2_SpcTauHH_L0_overallSyst_x_StatUncert'
p391
(lp392
F31.72789536415486
aI-1
asg42
(lp393
F8336.006820700004
aI-1
asS'L_x_ZHbb_Region_BMin0_incJet1_distJet0Pt_J2_Y2015_DLLOS_T2_SpcTauHH_L0_overallSyst_x_StatUncert'
p394
(lp395
F13.168829339106498
aI-1
asS'L_x_Zlf_Region_BMin0_incJet1_distJet0Pt_J2_Y2015_DLLOS_T2_SpcTauHH_L0_overallSyst_x_StatUncert'
p396
(lp397
F0.3134699302329325
aI-1
asS'L_x_stop_Region_BMin0_incJet1_distJet0Pt_J2_Y2015_DLLOS_T2_SpcTauHH_L0_overallSyst_x_StatUncert'
p398
(lp399
F166.11587748001253
aI-1
asS'L_x_WHtautau_Region_BMin0_incJet1_distJet0Pt_J2_Y2015_DLLOS_T2_SpcTauHH_L0_overallSyst_x_StatUncert'
p400
(lp401
F0.35953961632112175
aI-1
asS'L_x_Ztthf_Region_BMin0_incJet1_distJet0Pt_J2_Y2015_DLLOS_T2_SpcTauHH_L0_overallSyst_x_StatUncert'
p402
(lp403
F1363.3534738519356
aI-1
assS'Region_BMin0_incJet1_distdRBB_J2_Y2015_DLLOS_T2_SpcTauHH_L0'
p404
(dp405
S'L_x_ggFHtautau_Region_BMin0_incJet1_distdRBB_J2_Y2015_DLLOS_T2_SpcTauHH_L0_overallSyst_x_StatUncert'
p406
(lp407
F10.048575355865667
aI-1
asg3
F0.002615833953242695
sS'L_x_stop_Region_BMin0_incJet1_distdRBB_J2_Y2015_DLLOS_T2_SpcTauHH_L0_overallSyst_x_StatUncert'
p408
(lp409
F167.11961815265283
aI-1
asS'L_x_Zlf_Region_BMin0_incJet1_distdRBB_J2_Y2015_DLLOS_T2_SpcTauHH_L0_overallSyst_x_StatUncert'
p410
(lp411
F0.3134699302329314
aI-1
asS'L_x_ZHbb_Region_BMin0_incJet1_distdRBB_J2_Y2015_DLLOS_T2_SpcTauHH_L0_overallSyst_x_StatUncert'
p412
(lp413
F13.176159255059233
aI-1
asg10
F0.23820497361351473
sS'L_x_ttH_Region_BMin0_incJet1_distdRBB_J2_Y2015_DLLOS_T2_SpcTauHH_L0_overallSyst_x_StatUncert'
p414
(lp415
F31.922182811846227
aI-1
asS'L_x_W_Region_BMin0_incJet1_distdRBB_J2_Y2015_DLLOS_T2_SpcTauHH_L0_overallSyst_x_StatUncert'
p416
(lp417
F0.8165173952090398
aI-1
asg15
(lp418
F4349.6672265656625
aF-200.0
asS'L_x_Wtt_Region_BMin0_incJet1_distdRBB_J2_Y2015_DLLOS_T2_SpcTauHH_L0_overallSyst_x_StatUncert'
p419
(lp420
F44.62799507427547
aI-1
asS'L_x_Zttlf_Region_BMin0_incJet1_distdRBB_J2_Y2015_DLLOS_T2_SpcTauHH_L0_overallSyst_x_StatUncert'
p421
(lp422
F64.73155633030534
aI-1
asS'L_x_Zhf_Region_BMin0_incJet1_distdRBB_J2_Y2015_DLLOS_T2_SpcTauHH_L0_overallSyst_x_StatUncert'
p423
(lp424
F1.4269606162610708
aI-1
asS'L_x_diboson_Region_BMin0_incJet1_distdRBB_J2_Y2015_DLLOS_T2_SpcTauHH_L0_overallSyst_x_StatUncert'
p425
(lp426
F39.16254399865194
aI-1
asS'L_x_VBFHtautau_Region_BMin0_incJet1_distdRBB_J2_Y2015_DLLOS_T2_SpcTauHH_L0_overallSyst_x_StatUncert'
p427
(lp428
F1.3962541835080777
aI-1
asS'L_x_hhttbb_Region_BMin0_incJet1_distdRBB_J2_Y2015_DLLOS_T2_SpcTauHH_L0_overallSyst_x_HistSyst'
p429
(lp430
F21.748336132828314
aI-1
asS'L_x_WHtautau_Region_BMin0_incJet1_distdRBB_J2_Y2015_DLLOS_T2_SpcTauHH_L0_overallSyst_x_StatUncert'
p431
(lp432
F0.3625037259689251
aI-1
asS'L_x_Fake_Region_BMin0_incJet1_distdRBB_J2_Y2015_DLLOS_T2_SpcTauHH_L0_overallSyst_x_StatUncert'
p433
(lp434
F1303.8522082352138
aI-1
asS'L_x_ttbar_Region_BMin0_incJet1_distdRBB_J2_Y2015_DLLOS_T2_SpcTauHH_L0_overallSyst_x_StatUncert'
p435
(lp436
F3112.658472880594
aI-1
asS'L_x_ZHtautau_Region_BMin0_incJet1_distdRBB_J2_Y2015_DLLOS_T2_SpcTauHH_L0_overallSyst_x_StatUncert'
p437
(lp438
F5.804672783880855
aI-1
asS'L_x_WHbb_Region_BMin0_incJet1_distdRBB_J2_Y2015_DLLOS_T2_SpcTauHH_L0_overallSyst_x_StatUncert'
p439
(lp440
F0.15573196151105456
aI-1
asg29
(lp441
F21.748336132828314
aI-1
asg25
(lp442
F8314.111874673155
aI-1
asg37
F8371.0
sS'L_x_Ztthf_Region_BMin0_incJet1_distdRBB_J2_Y2015_DLLOS_T2_SpcTauHH_L0_overallSyst_x_StatUncert'
p443
(lp444
F1364.2752353879473
aI-1
asg42
(lp445
F8335.860210805984
aI-1
asS'L_x_ttbarFake_Region_BMin0_incJet1_distdRBB_J2_Y2015_DLLOS_T2_SpcTauHH_L0_overallSyst_x_StatUncert'
p446
(lp447
F2152.261216594171
aI-1
assS'Region_BMin0_incJet1_distTau0Pt_J2_Y2015_DLLOS_T2_SpcTauHH_L0'
p448
(dp449
S'L_x_ggFHtautau_Region_BMin0_incJet1_distTau0Pt_J2_Y2015_DLLOS_T2_SpcTauHH_L0_overallSyst_x_StatUncert'
p450
(lp451
F9.768231222674263
aI-1
asg3
F0.0025663078638484714
sS'L_x_hhttbb_Region_BMin0_incJet1_distTau0Pt_J2_Y2015_DLLOS_T2_SpcTauHH_L0_overallSyst_x_HistSyst'
p452
(lp453
F21.19774453576904
aI-1
asg10
F0.23293923856976476
sS'L_x_ZHbb_Region_BMin0_incJet1_distTau0Pt_J2_Y2015_DLLOS_T2_SpcTauHH_L0_overallSyst_x_StatUncert'
p454
(lp455
F12.995140632187976
aI-1
asS'L_x_WHtautau_Region_BMin0_incJet1_distTau0Pt_J2_Y2015_DLLOS_T2_SpcTauHH_L0_overallSyst_x_StatUncert'
p456
(lp457
F0.33604474952601837
aI-1
asg15
(lp458
F4239.548907153808
aF-200.0
asS'L_x_Zhf_Region_BMin0_incJet1_distTau0Pt_J2_Y2015_DLLOS_T2_SpcTauHH_L0_overallSyst_x_StatUncert'
p459
(lp460
F1.4077853363215485
aI-1
asS'L_x_stop_Region_BMin0_incJet1_distTau0Pt_J2_Y2015_DLLOS_T2_SpcTauHH_L0_overallSyst_x_StatUncert'
p461
(lp462
F163.8636121945599
aI-1
asS'L_x_Zlf_Region_BMin0_incJet1_distTau0Pt_J2_Y2015_DLLOS_T2_SpcTauHH_L0_overallSyst_x_StatUncert'
p463
(lp464
F0.3134699302329325
aI-1
asg25
(lp465
F8260.0162024133
aI-1
asS'L_x_ttH_Region_BMin0_incJet1_distTau0Pt_J2_Y2015_DLLOS_T2_SpcTauHH_L0_overallSyst_x_StatUncert'
p466
(lp467
F30.99438889351457
aI-1
asS'L_x_ttbarFake_Region_BMin0_incJet1_distTau0Pt_J2_Y2015_DLLOS_T2_SpcTauHH_L0_overallSyst_x_StatUncert'
p468
(lp469
F2146.1064306700077
aI-1
asS'L_x_diboson_Region_BMin0_incJet1_distTau0Pt_J2_Y2015_DLLOS_T2_SpcTauHH_L0_overallSyst_x_StatUncert'
p470
(lp471
F38.39301809609476
aI-1
asg29
(lp472
F21.19774453576904
aI-1
asS'L_x_ZHtautau_Region_BMin0_incJet1_distTau0Pt_J2_Y2015_DLLOS_T2_SpcTauHH_L0_overallSyst_x_StatUncert'
p473
(lp474
F5.712559130314844
aI-1
asS'L_x_Fake_Region_BMin0_incJet1_distTau0Pt_J2_Y2015_DLLOS_T2_SpcTauHH_L0_overallSyst_x_StatUncert'
p475
(lp476
F1296.4118820347587
aI-1
asg37
F8325.0
sS'L_x_Zttlf_Region_BMin0_incJet1_distTau0Pt_J2_Y2015_DLLOS_T2_SpcTauHH_L0_overallSyst_x_StatUncert'
p477
(lp478
F62.85698095781013
aI-1
asS'L_x_VBFHtautau_Region_BMin0_incJet1_distTau0Pt_J2_Y2015_DLLOS_T2_SpcTauHH_L0_overallSyst_x_StatUncert'
p479
(lp480
F1.362795842789514
aI-1
asS'L_x_Ztthf_Region_BMin0_incJet1_distTau0Pt_J2_Y2015_DLLOS_T2_SpcTauHH_L0_overallSyst_x_StatUncert'
p481
(lp482
F1348.180901498883
aI-1
asg42
(lp483
F8281.21394694907
aI-1
asS'L_x_WHbb_Region_BMin0_incJet1_distTau0Pt_J2_Y2015_DLLOS_T2_SpcTauHH_L0_overallSyst_x_StatUncert'
p484
(lp485
F0.15356671985286544
aI-1
asS'L_x_Wtt_Region_BMin0_incJet1_distTau0Pt_J2_Y2015_DLLOS_T2_SpcTauHH_L0_overallSyst_x_StatUncert'
p486
(lp487
F44.48074614483501
aI-1
asS'L_x_W_Region_BMin0_incJet1_distTau0Pt_J2_Y2015_DLLOS_T2_SpcTauHH_L0_overallSyst_x_StatUncert'
p488
(lp489
F0.8165173542071678
aI-1
asS'L_x_ttbar_Region_BMin0_incJet1_distTau0Pt_J2_Y2015_DLLOS_T2_SpcTauHH_L0_overallSyst_x_StatUncert'
p490
(lp491
F3095.8621310047292
aI-1
ass.